(lp0
(lp1
a(dp2
S'10.11.6.11'
p3
(dp4
S'jid'
p5
S'20191128150032670091'
p6
sS'retcode'
p7
I0
sS'ret'
p8
(dp9
S'pid'
p10
I19681
sS'retcode'
p11
I0
sS'stderr'
p12
S''
p13
sS'stdout'
p14
S'10.11.6.11|64028|14724|23.00%|16|0.105|599|48.4|8.08%|\xe7\x89\xa9\xe7\x90\x86\xe6\x9c\xba'
p15
sssa(dp16
S'10.11.6.21'
p17
(dp18
g5
S'20191128150032670091'
p19
sg7
I0
sg8
(dp20
S'pid'
p21
I20503
sS'retcode'
p22
I0
sS'stderr'
p23
g13
sS'stdout'
p24
S'10.11.6.21|64028|14992|23.41%|16|5.423|16602.2|7096.5|42.74%|\xe7\x89\xa9\xe7\x90\x86\xe6\x9c\xba'
p25
sssa(dp26
S'10.11.6.12'
p27
(dp28
g5
S'20191128150032670091'
p29
sg7
I0
sg8
(dp30
S'pid'
p31
I1989
sS'retcode'
p32
I0
sS'stderr'
p33
g13
sS'stdout'
p34
S'10.11.6.12|64028|13737|21.45%|16|0.140|599|40.7|6.79%|\xe7\x89\xa9\xe7\x90\x86\xe6\x9c\xba'
p35
sssa(dp36
S'10.11.6.16'
p37
(dp38
g5
S'20191128150032670091'
p39
sg7
I0
sg8
(dp40
S'pid'
p41
I3110
sS'retcode'
p42
I0
sS'stderr'
p43
g13
sS'stdout'
p44
S'10.11.6.16|64028|20835|32.54%|16|4.875|16602.2|9032.2|54.40%|\xe7\x89\xa9\xe7\x90\x86\xe6\x9c\xba'
p45
sssa(dp46
S'10.11.6.3'
p47
(dp48
g5
S'20191128150032670091'
p49
sg7
I0
sg8
(dp50
S'pid'
p51
I50474
sS'retcode'
p52
I0
sS'stderr'
p53
g13
sS'stdout'
p54
S'10.11.6.3|24015|11005|45.83%|4|0.170|322.1|211.3|65.60%|\xe8\x99\x9a\xe6\x8b\x9f\xe6\x9c\xba'
p55
sssa(dp56
S'10.11.6.17'
p57
(dp58
g5
S'20191128150032670091'
p59
sg7
I0
sg8
(dp60
S'pid'
p61
I27658
sS'retcode'
p62
I0
sS'stderr'
p63
g13
sS'stdout'
p64
S'10.11.6.17|64028|21371|33.38%|16|12.032|16602.2|7000.5|42.17%|\xe7\x89\xa9\xe7\x90\x86\xe6\x9c\xba'
p65
sssa(dp66
S'10.11.6.24'
p67
(dp68
g5
S'20191128150032670091'
p69
sg7
I0
sg8
(dp70
S'pid'
p71
I5511
sS'retcode'
p72
I0
sS'stderr'
p73
g13
sS'stdout'
p74
S'10.11.6.24|64028|18772|29.32%|16|7.037|16602.2|7171.8|43.20%|\xe7\x89\xa9\xe7\x90\x86\xe6\x9c\xba'
p75
sssa(dp76
S'192.168.1.185'
p77
(dp78
g5
S'20191128150032670091'
p79
sg7
I0
sg8
(dp80
S'pid'
p81
I27619
sS'retcode'
p82
I0
sS'stderr'
p83
g13
sS'stdout'
p84
S'192.168.1.185|7872|293|3.72%|4|0.002|85.9|16.4|19.09%|\xe8\x99\x9a\xe6\x8b\x9f\xe6\x9c\xba'
p85
sssa(dp86
S'10.11.2.40'
p87
(dp88
g5
S'20191128150032670091'
p89
sg7
I0
sg8
(dp90
S'pid'
p91
I33271
sS'retcode'
p92
I0
sS'stderr'
p93
g13
sS'stdout'
p94
S'10.11.2.40|64004|909|1.42%|32|0.004|3594|1.9|0.05%|\xe7\x89\xa9\xe7\x90\x86\xe6\x9c\xba'
p95
sssa(dp96
S'10.11.6.15'
p97
(dp98
g5
S'20191128150032670091'
p99
sg7
I0
sg8
(dp100
S'pid'
p101
I13961
sS'retcode'
p102
I0
sS'stderr'
p103
g13
sS'stdout'
p104
S'10.11.6.15|64028|38369|59.93%|16|1.035|8600.6|647.9|7.53%|\xe7\x89\xa9\xe7\x90\x86\xe6\x9c\xba'
p105
sssa(dp106
S'192.168.2.79'
p107
(dp108
g5
S'20191128150032670091'
p109
sg7
I0
sg8
(dp110
S'pid'
p111
I15768
sS'retcode'
p112
I0
sS'stderr'
p113
g13
sS'stdout'
p114
S'192.168.2.79|64304|15726|24.46%|32|0.151|24604.4|14845.5|60.34%|\xe7\x89\xa9\xe7\x90\x86\xe6\x9c\xba'
p115
sssa(dp116
S'192.168.1.6'
p117
(dp118
g5
S'20191128150032670091'
p119
sg7
I0
sg8
(dp120
S'pid'
p121
I72724
sS'retcode'
p122
I0
sS'stderr'
p123
g13
sS'stdout'
p124
S'192.168.1.6|7857|1176|14.95%|4|0.004|53.7|3.6|6.70%|\xe8\x99\x9a\xe6\x8b\x9f\xe6\x9c\xba'
p125
sssa(dp126
S'10.11.6.1'
p127
(dp128
g5
S'20191128150032670091'
p129
sg7
I0
sg8
(dp130
S'pid'
p131
I57953
sS'retcode'
p132
I0
sS'stderr'
p133
g13
sS'stdout'
p134
S'10.11.6.1|28055|20154|71.84%|4|0.053|107.4|81.6|75.98%|\xe8\x99\x9a\xe6\x8b\x9f\xe6\x9c\xba'
p135
sssa(dp136
S'10.11.6.26'
p137
(dp138
g5
S'20191128150032670091'
p139
sg7
I0
sg8
(dp140
S'pid'
p141
I108194
sS'retcode'
p142
I0
sS'stderr'
p143
g13
sS'stdout'
p144
S'10.11.6.26|15935|12968|81.38%|8|0.089|107.4|35.8|33.33%|\xe8\x99\x9a\xe6\x8b\x9f\xe6\x9c\xba'
p145
sssa(dp146
S'10.86.160.115'
p147
(dp148
g5
S'20191128150032670091'
p149
sg7
I0
sg8
(dp150
S'pid'
p151
I8520
sS'retcode'
p152
I0
sS'stderr'
p153
S'/tmp/tmphbfSHk.sh: line 46: dmidecode: command not found'
p154
sS'stdout'
p155
S'10.86.160.115|15950|5566|34.90%|8|0.024|107.4|26.8|24.95%|\xe7\x89\xa9\xe7\x90\x86\xe6\x9c\xba'
p156
sssa(dp157
S'10.86.161.83'
p158
(dp159
g5
S'20191128150032670091'
p160
sg7
I0
sg8
(dp161
S'pid'
p162
I32083
sS'retcode'
p163
I0
sS'stderr'
p164
S'/tmp/tmpKXg5g4.sh: line 46: dmidecode: command not found'
p165
sS'stdout'
p166
S'10.86.161.83|15950|10181|63.82%|8|0.000|107.4|8.1|7.54%|\xe7\x89\xa9\xe7\x90\x86\xe6\x9c\xba'
p167
sssa(dp168
S'192.168.2.101'
p169
(dp170
g5
S'20191128150032670091'
p171
sg7
I0
sg8
(dp172
S'pid'
p173
I18205
sS'retcode'
p174
I0
sS'stderr'
p175
S'/tmp/tmp2j8LYf.sh: line 46: dmidecode: command not found'
p176
sS'stdout'
p177
S'192.168.2.101|7872|335|4.26%|4|0.000|107.4|5.8|5.40%|\xe7\x89\xa9\xe7\x90\x86\xe6\x9c\xba'
p178
sssa(dp179
S'192.168.2.30'
p180
(dp181
g5
S'20191128150032670091'
p182
sg7
I0
sg8
(dp183
S'pid'
p184
I21114
sS'retcode'
p185
I0
sS'stderr'
p186
g13
sS'stdout'
p187
S'192.168.2.30|7872|543|6.91%|4|0.023|53.7|15.4|28.68%|\xe8\x99\x9a\xe6\x8b\x9f\xe6\x9c\xba'
p188
sssa(dp189
S'192.168.1.126'
p190
(dp191
g5
S'20191128150032670091'
p192
sg7
I0
sg8
(dp193
S'pid'
p194
I12503
sS'retcode'
p195
I0
sS'stderr'
p196
g13
sS'stdout'
p197
S'192.168.1.126|7872|2618|33.26%|4|0.484|53.7|8.0|14.90%|\xe8\x99\x9a\xe6\x8b\x9f\xe6\x9c\xba'
p198
sssa(dp199
S'10.11.6.5'
p200
(dp201
g5
S'20191128150032670091'
p202
sg7
I0
sg8
(dp203
S'pid'
p204
I34501
sS'retcode'
p205
I0
sS'stderr'
p206
g13
sS'stdout'
p207
S'10.11.6.5|24015|17351|72.25%|4|0.102|322.1|241.3|74.91%|\xe8\x99\x9a\xe6\x8b\x9f\xe6\x9c\xba'
p208
sssa(dp209
S'10.11.9.2'
p210
(dp211
g5
S'20191128150032670091'
p212
sg7
I0
sg8
(dp213
S'pid'
p214
I10860
sS'retcode'
p215
I0
sS'stderr'
p216
g13
sS'stdout'
p217
S'10.11.9.2|15935|1091|6.84%|8|0.001|107.4|4.4|4.10%|\xe8\x99\x9a\xe6\x8b\x9f\xe6\x9c\xba'
p218
sssa(dp219
S'192.168.1.55'
p220
(dp221
g5
S'20191128150032670091'
p222
sg7
I0
sg8
(dp223
S'pid'
p224
I11607
sS'retcode'
p225
I0
sS'stderr'
p226
g13
sS'stdout'
p227
S'192.168.1.55|15950|399|2.50%|8|0.008|85.9|48.0|55.88%|\xe8\x99\x9a\xe6\x8b\x9f\xe6\x9c\xba'
p228
sssa(dp229
S'10.11.2.23'
p230
(dp231
g5
S'20191128150032670091'
p232
sg7
I0
sg8
(dp233
S'pid'
p234
I11392
sS'retcode'
p235
I0
sS'stderr'
p236
g13
sS'stdout'
p237
S'10.11.2.23|15951|476|2.98%|4|0.003|536.9|11.9|2.22%|\xe8\x99\x9a\xe6\x8b\x9f\xe6\x9c\xba'
p238
sssa(dp239
S'10.11.6.19'
p240
(dp241
g5
S'20191128150032670091'
p242
sg7
I0
sg8
(dp243
S'pid'
p244
I11608
sS'retcode'
p245
I0
sS'stderr'
p246
g13
sS'stdout'
p247
S'10.11.6.19|64028|15931|24.88%|16|4.811|16602.2|6971.3|41.99%|\xe7\x89\xa9\xe7\x90\x86\xe6\x9c\xba'
p248
sssa(dp249
S'10.11.1.1'
p250
(dp251
g5
S'20191128150032670091'
p252
sg7
I0
sg8
(dp253
S'pid'
p254
I32049
sS'retcode'
p255
I0
sS'stderr'
p256
g13
sS'stdout'
p257
S'10.11.1.1|64312|44183|68.70%|48|0.356|40601.6|977.2|2.41%|\xe7\x89\xa9\xe7\x90\x86\xe6\x9c\xba'
p258
sssa(dp259
S'10.11.2.21'
p260
(dp261
g5
S'20191128150032670091'
p262
sg7
I0
sg8
(dp263
S'pid'
p264
I23124
sS'retcode'
p265
I0
sS'stderr'
p266
g13
sS'stdout'
p267
S'10.11.2.21|15951|2600|16.30%|4|0.028|536.9|25.5|4.75%|\xe8\x99\x9a\xe6\x8b\x9f\xe6\x9c\xba'
p268
sssa(dp269
S'10.11.1.21'
p270
(dp271
g5
S'20191128150032670091'
p272
sg7
I0
sg8
(dp273
S'pid'
p274
I360
sS'retcode'
p275
I0
sS'stderr'
p276
g13
sS'stdout'
p277
S'10.11.1.21|32109|3400|10.59%|8|0.037|536.9|165.2|30.77%|\xe8\x99\x9a\xe6\x8b\x9f\xe6\x9c\xba'
p278
sssa(dp279
S'10.11.6.23'
p280
(dp281
g5
S'20191128150032670091'
p282
sg7
I0
sg8
(dp283
S'pid'
p284
I28990
sS'retcode'
p285
I0
sS'stderr'
p286
g13
sS'stdout'
p287
S'10.11.6.23|64028|15798|24.68%|16|5.229|16602.2|7293.3|43.93%|\xe7\x89\xa9\xe7\x90\x86\xe6\x9c\xba'
p288
sssa(dp289
S'192.168.2.25'
p290
(dp291
g5
S'20191128150032670091'
p292
sg7
I0
sg8
(dp293
S'pid'
p294
I14143
sS'retcode'
p295
I0
sS'stderr'
p296
g13
sS'stdout'
p297
S'192.168.2.25|15950|7831|49.10%|8|0.020|118.1|15.3|12.96%|\xe8\x99\x9a\xe6\x8b\x9f\xe6\x9c\xba'
p298
sssa(dp299
S'10.11.6.18'
p300
(dp301
g5
S'20191128150032670091'
p302
sg7
I0
sg8
(dp303
S'pid'
p304
I16862
sS'retcode'
p305
I0
sS'stderr'
p306
g13
sS'stdout'
p307
S'10.11.6.18|64028|30237|47.22%|16|10.846|16602.2|7118.9|42.88%|\xe7\x89\xa9\xe7\x90\x86\xe6\x9c\xba'
p308
sssa(dp309
S'192.168.2.141'
p310
(dp311
g5
S'20191128150032670091'
p312
sg7
I0
sg8
(dp313
S'pid'
p314
I10810
sS'retcode'
p315
I0
sS'stderr'
p316
g13
sS'stdout'
p317
S'192.168.2.141|64304|17471|27.17%|32|2.047|9000.6|4084.4|45.38%|\xe7\x89\xa9\xe7\x90\x86\xe6\x9c\xba'
p318
sssa(dp319
S'10.11.1.11'
p320
(dp321
g5
S'20191128150032670091'
p322
sg7
I0
sg8
(dp323
S'pid'
p324
I55188
sS'retcode'
p325
I0
sS'stderr'
p326
g13
sS'stdout'
p327
S'10.11.1.11|15935|12610|79.13%|8|0.291|107.4|37.7|35.10%|\xe8\x99\x9a\xe6\x8b\x9f\xe6\x9c\xba'
p328
sssa(dp329
S'192.168.1.104'
p330
(dp331
g5
S'20191128150032670091'
p332
sg7
I0
sg8
(dp333
S'pid'
p334
I14938
sS'retcode'
p335
I0
sS'stderr'
p336
S'/tmp/tmpxLjeR2.sh: line 46: dmidecode: command not found'
p337
sS'stdout'
p338
S'192.168.1.104|11912|8508|71.43%|4|0.028|247|157.1|63.60%|\xe7\x89\xa9\xe7\x90\x86\xe6\x9c\xba'
p339
sssa(dp340
S'192.168.2.153'
p341
(dp342
g5
S'20191128150032670091'
p343
sg7
I0
sg8
(dp344
S'pid'
p345
I30182
sS'retcode'
p346
I0
sS'stderr'
p347
g13
sS'stdout'
p348
S'192.168.2.153|64428|26898|41.75%|1|0.049|1099.5|355.6|32.34%|\xe8\x99\x9a\xe6\x8b\x9f\xe6\x9c\xba'
p349
sssa(dp350
S'10.11.2.5'
p351
(dp352
g5
S'20191128150032670091'
p353
sg7
I0
sg8
(dp354
S'pid'
p355
I12492
sS'retcode'
p356
I0
sS'stderr'
p357
g13
sS'stdout'
p358
S'10.11.2.5|64308|36447|56.68%|48|0.453|60605.6|15452.0|25.50%|\xe7\x89\xa9\xe7\x90\x86\xe6\x9c\xba'
p359
sssa(dp360
S'10.11.2.28'
p361
(dp362
g5
S'20191128150032670091'
p363
sg7
I0
sg8
(dp364
S'pid'
p365
I34392
sS'retcode'
p366
I0
sS'stderr'
p367
g13
sS'stdout'
p368
S'10.11.2.28|7984|251|3.16%|4|0.012|107.4|27.5|25.61%|\xe8\x99\x9a\xe6\x8b\x9f\xe6\x9c\xba'
p369
sssa(dp370
S'10.11.6.22'
p371
(dp372
g5
S'20191128150032670091'
p373
sg7
I0
sg8
(dp374
S'pid'
p375
I10734
sS'retcode'
p376
I0
sS'stderr'
p377
g13
sS'stdout'
p378
S'10.11.6.22|64028|16634|25.98%|16|4.686|16602.2|7070.2|42.59%|\xe7\x89\xa9\xe7\x90\x86\xe6\x9c\xba'
p379
sssa(dp380
S'10.11.2.3'
p381
(dp382
g5
S'20191128150032670091'
p383
sg7
I0
sg8
(dp384
S'pid'
p385
I3497
sS'retcode'
p386
I0
sS'stderr'
p387
g13
sS'stdout'
p388
S'10.11.2.3|64309|16171|25.15%|48|0.103|40601.6|15205.1|37.45%|\xe7\x89\xa9\xe7\x90\x86\xe6\x9c\xba'
p389
sssa(dp390
S'192.168.1.187'
p391
(dp392
g5
S'20191128150032670091'
p393
sg7
I0
sg8
(dp394
S'pid'
p395
I992
sS'retcode'
p396
I0
sS'stderr'
p397
g13
sS'stdout'
p398
S'192.168.1.187|7872|3112|39.53%|4|0.037|85.9|36.4|42.37%|\xe8\x99\x9a\xe6\x8b\x9f\xe6\x9c\xba'
p399
sssa(dp400
S'192.168.1.127'
p401
(dp402
g5
S'20191128150032670091'
p403
sg7
I0
sg8
(dp404
S'pid'
p405
I29812
sS'retcode'
p406
I0
sS'stderr'
p407
g13
sS'stdout'
p408
S'192.168.1.127|7872|2150|27.31%|4|0.377|53.7|10.6|19.74%|\xe8\x99\x9a\xe6\x8b\x9f\xe6\x9c\xba'
p409
sssa(dp410
S'10.11.9.1'
p411
(dp412
g5
S'20191128150032670091'
p413
sg7
I0
sg8
(dp414
S'pid'
p415
I109422
sS'retcode'
p416
I0
sS'stderr'
p417
g13
sS'stdout'
p418
S'10.11.9.1|15935|3623|22.74%|8|0.002|107.4|6.8|6.33%|\xe8\x99\x9a\xe6\x8b\x9f\xe6\x9c\xba'
p419
sssa(dp420
S'192.168.2.42'
p421
(dp422
g5
S'20191128150032670091'
p423
sg7
I0
sg8
(dp424
S'pid'
p425
I44367
sS'retcode'
p426
I0
sS'stderr'
p427
g13
sS'stdout'
p428
S'192.168.2.42|7857|7014|89.27%|4|0.008|64.4|10.1|15.68%|\xe8\x99\x9a\xe6\x8b\x9f\xe6\x9c\xba'
p429
sssa(dp430
S'192.168.1.5'
p431
(dp432
g5
S'20191128150032670091'
p433
sg7
I0
sg8
(dp434
S'pid'
p435
I129166
sS'retcode'
p436
I0
sS'stderr'
p437
g13
sS'stdout'
p438
S'192.168.1.5|7857|4373|55.67%|4|0.015|53.7|8.4|15.64%|\xe8\x99\x9a\xe6\x8b\x9f\xe6\x9c\xba'
p439
sssa(dp440
S'10.11.6.27'
p441
(dp442
g5
S'20191128150032670091'
p443
sg7
I0
sg8
(dp444
S'pid'
p445
I103830
sS'retcode'
p446
I0
sS'stderr'
p447
g13
sS'stdout'
p448
S'10.11.6.27|15935|878|5.51%|8|0.114|107.4|80.8|75.23%|\xe8\x99\x9a\xe6\x8b\x9f\xe6\x9c\xba'
p449
sssa(dp450
S'192.168.1.7'
p451
(dp452
g5
S'20191128150032670091'
p453
sg7
I0
sg8
(dp454
S'pid'
p455
I78066
sS'retcode'
p456
I0
sS'stderr'
p457
g13
sS'stdout'
p458
S'192.168.1.7|7857|1201|15.29%|4|0.762|53.7|23.9|44.51%|\xe8\x99\x9a\xe6\x8b\x9f\xe6\x9c\xba'
p459
sssa(dp460
S'192.168.1.20'
p461
(dp462
g5
S'20191128150032670091'
p463
sg7
I0
sg8
(dp464
S'pid'
p465
I9462
sS'retcode'
p466
I0
sS'stderr'
p467
S'/tmp/tmpCnpXci.sh: line 46: dmidecode: command not found'
p468
sS'stdout'
p469
S'192.168.1.20|7872|5666|71.96%|4|0.057|214.8|75.8|35.29%|\xe7\x89\xa9\xe7\x90\x86\xe6\x9c\xba'
p470
sssa(dp471
S'192.168.2.200'
p472
(dp473
g5
S'20191128150032670091'
p474
sg7
I0
sg8
(dp475
S'pid'
p476
I29132
sS'retcode'
p477
I0
sS'stderr'
p478
S'/tmp/tmpjikrsT.sh: line 46: dmidecode: command not found'
p479
sS'stdout'
p480
S'192.168.2.200|3832|3454|90.14%|4|0.003|107.4|7.3|6.80%|\xe7\x89\xa9\xe7\x90\x86\xe6\x9c\xba'
p481
sssa(dp482
S'192.168.2.140'
p483
(dp484
g5
S'20191128150032670091'
p485
sg7
I0
sg8
(dp486
S'pid'
p487
I18710
sS'retcode'
p488
I0
sS'stderr'
p489
g13
sS'stdout'
p490
S'192.168.2.140|64304|16774|26.09%|32|4.093|2999.4|2052.6|68.43%|\xe7\x89\xa9\xe7\x90\x86\xe6\x9c\xba'
p491
sssa(dp492
S'10.86.160.114'
p493
(dp494
g5
S'20191128150032670091'
p495
sg7
I0
sg8
(dp496
S'pid'
p497
I15183
sS'retcode'
p498
I0
sS'stderr'
p499
S'/tmp/tmpvhz0HK.sh: line 46: dmidecode: command not found'
p500
sS'stdout'
p501
S'10.86.160.114|15950|11252|70.55%|8|0.592|536.8|313.4|58.38%|\xe7\x89\xa9\xe7\x90\x86\xe6\x9c\xba'
p502
sssa(dp503
S'192.168.1.122'
p504
(dp505
g5
S'20191128150032670091'
p506
sg7
I0
sg8
(dp507
S'pid'
p508
I4520
sS'retcode'
p509
I0
sS'stderr'
p510
g13
sS'stdout'
p511
S'192.168.1.122|64427|18125|28.13%|8|1.007|53.7|33.2|61.82%|\xe8\x99\x9a\xe6\x8b\x9f\xe6\x9c\xba'
p512
sssa(dp513
S'10.11.1.2'
p514
(dp515
g5
S'20191128150032670091'
p516
sg7
I0
sg8
(dp517
S'pid'
p518
I12324
sS'retcode'
p519
I0
sS'stderr'
p520
g13
sS'stdout'
p521
S'10.11.1.2|64312|25527|39.69%|48|0.266|40601.6|994.7|2.45%|\xe7\x89\xa9\xe7\x90\x86\xe6\x9c\xba'
p522
sssa(dp523
S'10.11.6.25'
p524
(dp525
g5
S'20191128150032670091'
p526
sg7
I0
sg8
(dp527
S'pid'
p528
I51236
sS'retcode'
p529
I0
sS'stderr'
p530
g13
sS'stdout'
p531
S'10.11.6.25|15935|8623|54.11%|8|0.743|107.4|28.9|26.91%|\xe8\x99\x9a\xe6\x8b\x9f\xe6\x9c\xba'
p532
sssa(dp533
S'192.168.2.129'
p534
(dp535
g5
S'20191128150032670091'
p536
sg7
I0
sg8
(dp537
S'pid'
p538
I42445
sS'retcode'
p539
I0
sS'stderr'
p540
g13
sS'stdout'
p541
S'192.168.2.129|64302|28412|44.19%|48|1.380|1199.1|487.2|40.63%|\xe7\x89\xa9\xe7\x90\x86\xe6\x9c\xba'
p542
sssa(dp543
S'10.11.6.4'
p544
(dp545
g5
S'20191128150032670091'
p546
sg7
I0
sg8
(dp547
S'pid'
p548
I42500
sS'retcode'
p549
I0
sS'stderr'
p550
g13
sS'stdout'
p551
S'10.11.6.4|24015|12601|52.47%|4|0.071|322.1|200.1|62.12%|\xe8\x99\x9a\xe6\x8b\x9f\xe6\x9c\xba'
p552
sssa(dp553
S'192.168.2.197'
p554
(dp555
g5
S'20191128150032670091'
p556
sg7
I0
sg8
(dp557
S'pid'
p558
I22201
sS'retcode'
p559
I0
sS'stderr'
p560
g13
sS'stdout'
p561
S'192.168.2.197|7872|388|4.93%|4|0.002|85.9|6.0|6.98%|\xe8\x99\x9a\xe6\x8b\x9f\xe6\x9c\xba'
p562
sssa(dp563
S'192.168.1.106'
p564
(dp565
g5
S'20191128150032670091'
p566
sg7
I0
sg8
(dp567
S'pid'
p568
I12322
sS'retcode'
p569
I0
sS'stderr'
p570
g13
sS'stdout'
p571
S'192.168.1.106|7872|5919|75.19%|4|0.012|85.9|52.7|61.35%|\xe8\x99\x9a\xe6\x8b\x9f\xe6\x9c\xba'
p572
sssa(dp573
S'192.168.2.183'
p574
(dp575
g5
S'20191128150032670091'
p576
sg7
I0
sg8
(dp577
S'pid'
p578
I889
sS'retcode'
p579
I0
sS'stderr'
p580
g13
sS'stdout'
p581
S'192.168.2.183|15951|2003|12.56%|4|0.074|408|74.0|18.14%|\xe8\x99\x9a\xe6\x8b\x9f\xe6\x9c\xba'
p582
sssa(dp583
S'10.86.160.113'
p584
(dp585
g5
S'20191128150032670091'
p586
sg7
I0
sg8
(dp587
S'pid'
p588
I962
sS'retcode'
p589
I0
sS'stderr'
p590
S'/tmp/tmpGTjhfi.sh: line 46: dmidecode: command not found'
p591
sS'stdout'
p592
S'10.86.160.113|15950|8471|53.11%|8|0.862|536.8|319.5|59.52%|\xe7\x89\xa9\xe7\x90\x86\xe6\x9c\xba'
p593
sssa(dp594
S'10.11.1.8'
p595
(dp596
g5
S'20191128150032670091'
p597
sg7
I0
sg8
(dp598
S'pid'
p599
I54375
sS'retcode'
p600
I0
sS'stderr'
p601
g13
sS'stdout'
p602
S'10.11.1.8|15935|8697|54.58%|8|0.019|107.4|22.5|20.95%|\xe8\x99\x9a\xe6\x8b\x9f\xe6\x9c\xba'
p603
sssa(dp604
S'10.11.2.29'
p605
(dp606
g5
S'20191128150032670091'
p607
sg7
I0
sg8
(dp608
S'pid'
p609
I83683
sS'retcode'
p610
I0
sS'stderr'
p611
g13
sS'stdout'
p612
S'10.11.2.29|7857|270|3.44%|4|0.003|64.4|2.8|4.35%|\xe8\x99\x9a\xe6\x8b\x9f\xe6\x9c\xba'
p613
sssa(dp614
S'10.86.161.85'
p615
(dp616
g5
S'20191128150032670091'
p617
sg7
I0
sg8
(dp618
S'pid'
p619
I694789
sS'retcode'
p620
I0
sS'stderr'
p621
S'/tmp/tmpajN5wo.sh: line 46: dmidecode: command not found'
p622
sS'stdout'
p623
S'10.86.161.85|15950|12125|76.01%|8|0.022|107.4|44.8|41.71%|\xe7\x89\xa9\xe7\x90\x86\xe6\x9c\xba'
p624
sssa(dp625
S'10.11.6.28'
p626
(dp627
g5
S'20191128150032670091'
p628
sg7
I0
sg8
(dp629
S'pid'
p630
I22019
sS'retcode'
p631
I0
sS'stderr'
p632
g13
sS'stdout'
p633
S'10.11.6.28|15935|12780|80.20%|8|1.093|107.4|32.1|29.89%|\xe8\x99\x9a\xe6\x8b\x9f\xe6\x9c\xba'
p634
sssa(dp635
S'10.11.3.5'
p636
(dp637
g5
S'20191128150032670091'
p638
sg7
I0
sg8
(dp639
S'pid'
p640
I2975
sS'retcode'
p641
I0
sS'stderr'
p642
g13
sS'stdout'
p643
S'10.11.3.5|15935|814|5.11%|4|0.014|274.9|6.5|2.36%|\xe8\x99\x9a\xe6\x8b\x9f\xe6\x9c\xba'
p644
sssa(dp645
S'192.168.1.111'
p646
(dp647
g5
S'20191128150032670091'
p648
sg7
I0
sg8
(dp649
S'pid'
p650
I8256
sS'retcode'
p651
I0
sS'stderr'
p652
S'/tmp/tmpAzknFf.sh: line 46: dmidecode: command not found'
p653
sS'stdout'
p654
S'192.168.1.111|15951|12886|80.78%|4|0.076|107.4|41.0|38.18%|\xe7\x89\xa9\xe7\x90\x86\xe6\x9c\xba'
p655
sssa(dp656
S'10.11.2.2'
p657
(dp658
g5
S'20191128150032670091'
p659
sg7
I0
sg8
(dp660
S'pid'
p661
I15624
sS'retcode'
p662
I0
sS'stderr'
p663
g13
sS'stdout'
p664
S'10.11.2.2|64309|30825|47.93%|48|2.396|40601.6|22236.6|54.77%|\xe7\x89\xa9\xe7\x90\x86\xe6\x9c\xba'
p665
sssa(dp666
S'192.168.2.26'
p667
(dp668
g5
S'20191128150032670091'
p669
sg7
I0
sg8
(dp670
S'pid'
p671
I5766
sS'retcode'
p672
I0
sS'stderr'
p673
g13
sS'stdout'
p674
S'192.168.2.26|7872|354|4.50%|4|0.000|53.7|2.5|4.66%|\xe8\x99\x9a\xe6\x8b\x9f\xe6\x9c\xba'
p675
sssa(dp676
S'10.11.3.2'
p677
(dp678
g5
S'20191128150032670091'
p679
sg7
I0
sg8
(dp680
S'pid'
p681
I96186
sS'retcode'
p682
I0
sS'stderr'
p683
g13
sS'stdout'
p684
S'10.11.3.2|15935|11879|74.55%|4|0.006|274.9|8.1|2.95%|\xe8\x99\x9a\xe6\x8b\x9f\xe6\x9c\xba'
p685
sssa(dp686
S'10.11.10.3'
p687
(dp688
g5
S'20191128150032670091'
p689
sg7
I0
sg8
(dp690
S'pid'
p691
I30718
sS'retcode'
p692
I0
sS'stderr'
p693
g13
sS'stdout'
p694
S'10.11.10.3|63239|1028|1.60%|8|0.087|53.7|4.2|7.82%|\xe8\x99\x9a\xe6\x8b\x9f\xe6\x9c\xba'
p695
sssa(dp696
S'10.11.2.24'
p697
(dp698
g5
S'20191128150032670091'
p699
sg7
I0
sg8
(dp700
S'pid'
p701
I4598
sS'retcode'
p702
I0
sS'stderr'
p703
S'awk: fatal: division by zero attempted'
p704
sS'stdout'
p705
S'10.11.2.24|15951|10002|62.71%|4||536.9|14.0|2.61%|\xe8\x99\x9a\xe6\x8b\x9f\xe6\x9c\xba'
p706
sssa(dp707
S'192.168.2.28'
p708
(dp709
g5
S'20191128150032670091'
p710
sg7
I0
sg8
(dp711
S'pid'
p712
I17488
sS'retcode'
p713
I0
sS'stderr'
p714
g13
sS'stdout'
p715
S'192.168.2.28|7872|1030|13.08%|4|0.000|53.7|19.4|36.13%|\xe8\x99\x9a\xe6\x8b\x9f\xe6\x9c\xba'
p716
sssa(dp717
S'10.11.1.7'
p718
(dp719
g5
S'20191128150032670091'
p720
sg7
I0
sg8
(dp721
S'pid'
p722
I70289
sS'retcode'
p723
I0
sS'stderr'
p724
g13
sS'stdout'
p725
S'10.11.1.7|15935|14308|89.79%|8|0.025|107.4|22.0|20.48%|\xe8\x99\x9a\xe6\x8b\x9f\xe6\x9c\xba'
p726
sssa(dp727
S'10.11.3.6'
p728
(dp729
g5
S'20191128150032670091'
p730
sg7
I0
sg8
(dp731
S'pid'
p732
I60052
sS'retcode'
p733
I0
sS'stderr'
p734
g13
sS'stdout'
p735
S'10.11.3.6|15935|9638|60.48%|4|0.068|274.9|25.5|9.28%|\xe8\x99\x9a\xe6\x8b\x9f\xe6\x9c\xba'
p736
sssa(dp737
S'192.168.2.21'
p738
(dp739
g5
S'20191128150032670091'
p740
sg7
I0
sg8
(dp741
S'pid'
p742
I17220
sS'retcode'
p743
I0
sS'stderr'
p744
g13
sS'stdout'
p745
S'192.168.2.21|32109|8738|27.21%|8|0.003|118.1|26.5|22.44%|\xe8\x99\x9a\xe6\x8b\x9f\xe6\x9c\xba'
p746
sssa(dp747
S'10.11.3.1'
p748
(dp749
g5
S'20191128150032670091'
p750
sg7
I0
sg8
(dp751
S'pid'
p752
I108495
sS'retcode'
p753
I0
sS'stderr'
p754
g13
sS'stdout'
p755
S'10.11.3.1|15935|13844|86.88%|4|0.720|274.9|126.5|46.02%|\xe8\x99\x9a\xe6\x8b\x9f\xe6\x9c\xba'
p756
sssa(dp757
S'192.168.2.128'
p758
(dp759
g5
S'20191128150032670091'
p760
sg7
I0
sg8
(dp761
S'pid'
p762
I10029
sS'retcode'
p763
I0
sS'stderr'
p764
g13
sS'stdout'
p765
S'192.168.2.128|64302|39834|61.95%|48|0.674|1199.1|68.3|5.70%|\xe7\x89\xa9\xe7\x90\x86\xe6\x9c\xba'
p766
sssa(dp767
S'10.11.3.4'
p768
(dp769
g5
S'20191128150032670091'
p770
sg7
I0
sg8
(dp771
S'pid'
p772
I8439
sS'retcode'
p773
I0
sS'stderr'
p774
g13
sS'stdout'
p775
S'10.11.3.4|15935|15506|97.31%|4|0.040|274.9|75.0|27.28%|\xe8\x99\x9a\xe6\x8b\x9f\xe6\x9c\xba'
p776
sssa(dp777
S'10.11.3.7'
p778
(dp779
g5
S'20191128150032670091'
p780
sg7
I0
sg8
(dp781
S'pid'
p782
I34151
sS'retcode'
p783
I0
sS'stderr'
p784
g13
sS'stdout'
p785
S'10.11.3.7|15935|13192|82.78%|4|0.062|274.9|130.1|47.33%|\xe8\x99\x9a\xe6\x8b\x9f\xe6\x9c\xba'
p786
sssa(dp787
S'192.168.2.182'
p788
(dp789
g5
S'20191128150032670091'
p790
sg7
I0
sg8
(dp791
S'pid'
p792
I4213
sS'retcode'
p793
I0
sS'stderr'
p794
g13
sS'stdout'
p795
S'192.168.2.182|7872|4242|53.89%|4|0.005|279.2|65.2|23.35%|\xe8\x99\x9a\xe6\x8b\x9f\xe6\x9c\xba'
p796
sssa(dp797
S'192.168.1.132'
p798
(dp799
g5
S'20191128150032670091'
p800
sg7
I0
sg8
(dp801
S'pid'
p802
I2206
sS'retcode'
p803
I0
sS'stderr'
p804
S'/tmp/tmpUJQo2i.sh: line 46: dmidecode: command not found'
p805
sS'stdout'
p806
S'192.168.1.132|32110|7554|23.53%|4|0.010|214.8|50.9|23.70%|\xe7\x89\xa9\xe7\x90\x86\xe6\x9c\xba'
p807
sssa(dp808
S'192.168.1.113'
p809
(dp810
g5
S'20191128150032670091'
p811
sg7
I0
sg8
(dp812
S'pid'
p813
I19864
sS'retcode'
p814
I0
sS'stderr'
p815
S'/tmp/tmpx1qD_Z.sh: line 46: dmidecode: command not found'
p816
sS'stdout'
p817
S'192.168.1.113|7872|3541|44.98%|4|0.034|107.4|18.0|16.76%|\xe7\x89\xa9\xe7\x90\x86\xe6\x9c\xba'
p818
sssa(dp819
S'192.168.2.195'
p820
(dp821
g5
S'20191128150032670091'
p822
sg7
I0
sg8
(dp823
S'pid'
p824
I4605
sS'retcode'
p825
I0
sS'stderr'
p826
g13
sS'stdout'
p827
S'192.168.2.195|15951|3460|21.69%|4|0.002|193.3|39.5|20.43%|\xe8\x99\x9a\xe6\x8b\x9f\xe6\x9c\xba'
p828
sssa(dp829
S'192.168.1.188'
p830
(dp831
g5
S'20191128150032670091'
p832
sg7
I0
sg8
(dp833
S'pid'
p834
I27680
sS'retcode'
p835
I0
sS'stderr'
p836
g13
sS'stdout'
p837
S'192.168.1.188|7872|992|12.60%|4|0.016|85.9|40.0|46.57%|\xe8\x99\x9a\xe6\x8b\x9f\xe6\x9c\xba'
p838
sssa(dp839
S'10.86.160.112'
p840
(dp841
g5
S'20191128150032670091'
p842
sg7
I0
sg8
(dp843
S'pid'
p844
I25721
sS'retcode'
p845
I0
sS'stderr'
p846
S'/tmp/tmpVziFGZ.sh: line 46: dmidecode: command not found'
p847
sS'stdout'
p848
S'10.86.160.112|15950|13114|82.22%|8|1.554|536.8|297.0|55.33%|\xe7\x89\xa9\xe7\x90\x86\xe6\x9c\xba'
p849
sssa(dp850
S'10.11.1.3'
p851
(dp852
g5
S'20191128150032670091'
p853
sg7
I0
sg8
(dp854
S'pid'
p855
I33527
sS'retcode'
p856
I0
sS'stderr'
p857
g13
sS'stdout'
p858
S'10.11.1.3|64312|30756|47.82%|48|0.310|40601.6|1002.9|2.47%|\xe7\x89\xa9\xe7\x90\x86\xe6\x9c\xba'
p859
sssa(dp860
S'10.11.8.53'
p861
(dp862
g5
S'20191128150032670091'
p863
sg7
I0
sg8
(dp864
S'pid'
p865
I8564
sS'retcode'
p866
I0
sS'stderr'
p867
S'/tmp/__salt.tmp.Jt3CaD.sh: line 46: dmidecode: command not found'
p868
sS'stdout'
p869
S'10.11.8.53|7872|3299|41.90%|4|0.010|107.4|39.0|36.31%|\xe7\x89\xa9\xe7\x90\x86\xe6\x9c\xba'
p870
sssa(dp871
S'10.11.6.29'
p872
(dp873
g5
S'20191128150032670091'
p874
sg7
I0
sg8
(dp875
S'pid'
p876
I124124
sS'retcode'
p877
I0
sS'stderr'
p878
S'awk: fatal: division by zero attempted'
p879
sS'stdout'
p880
S'10.11.6.29|15935|5337|33.49%|8||268.5|177.2|66.00%|\xe8\x99\x9a\xe6\x8b\x9f\xe6\x9c\xba'
p881
sssa(dp882
S'10.11.2.22'
p883
(dp884
g5
S'20191128150032670091'
p885
sg7
I0
sg8
(dp886
S'pid'
p887
I5663
sS'retcode'
p888
I0
sS'stderr'
p889
g13
sS'stdout'
p890
S'10.11.2.22|15951|2417|15.15%|4|0.041|536.9|27.4|5.10%|\xe8\x99\x9a\xe6\x8b\x9f\xe6\x9c\xba'
p891
sssa(dp892
S'192.168.2.24'
p893
(dp894
g5
S'20191128150032670091'
p895
sg7
I0
sg8
(dp896
S'pid'
p897
I24422
sS'retcode'
p898
I0
sS'stderr'
p899
g13
sS'stdout'
p900
S'192.168.2.24|16080|11606|72.18%|8|0.035|118.1|17.4|14.73%|\xe8\x99\x9a\xe6\x8b\x9f\xe6\x9c\xba'
p901
sssa(dp902
S'192.168.1.42'
p903
(dp904
g5
S'20191128150032670091'
p905
sg7
I0
sg8
(dp906
S'pid'
p907
I7174
sS'retcode'
p908
I0
sS'stderr'
p909
S'/tmp/tmp7lh8Ba.sh: line 46: dmidecode: command not found'
p910
sS'stdout'
p911
S'192.168.1.42|7872|4382|55.67%|4|0.015|107.4|12.4|11.55%|\xe7\x89\xa9\xe7\x90\x86\xe6\x9c\xba'
p912
sssa(dp913
S'192.168.2.31'
p914
(dp915
g5
S'20191128150032670091'
p916
sg7
I0
sg8
(dp917
S'pid'
p918
I7090
sS'retcode'
p919
I0
sS'stderr'
p920
g13
sS'stdout'
p921
S'192.168.2.31|7872|521|6.62%|4|0.008|53.7|15.1|28.12%|\xe8\x99\x9a\xe6\x8b\x9f\xe6\x9c\xba'
p922
sssa(dp923
S'192.168.1.53'
p924
(dp925
g5
S'20191128150032670091'
p926
sg7
I0
sg8
(dp927
S'pid'
p928
I20585
sS'retcode'
p929
I0
sS'stderr'
p930
g13
sS'stdout'
p931
S'192.168.1.53|7872|7097|90.15%|4|0.000|85.9|19.4|22.58%|\xe8\x99\x9a\xe6\x8b\x9f\xe6\x9c\xba'
p932
sssa(dp933
S'192.168.2.192'
p934
(dp935
g5
S'20191128150032670091'
p936
sg7
I0
sg8
(dp937
S'pid'
p938
I30578
sS'retcode'
p939
I0
sS'stderr'
p940
g13
sS'stdout'
p941
S'192.168.2.192|3832|482|12.55%|4|0.002|85.9|59.5|69.27%|\xe8\x99\x9a\xe6\x8b\x9f\xe6\x9c\xba'
p942
sssa(dp943
S'10.86.161.84'
p944
(dp945
g5
S'20191128150032670091'
p946
sg7
I0
sg8
(dp947
S'pid'
p948
I6592
sS'retcode'
p949
I0
sS'stderr'
p950
S'/tmp/tmpA13JqF.sh: line 46: dmidecode: command not found'
p951
sS'stdout'
p952
S'10.86.161.84|15950|14127|88.56%|8|0.084|107.4|35.2|32.77%|\xe7\x89\xa9\xe7\x90\x86\xe6\x9c\xba'
p953
sssa(dp954
S'10.10.26.32'
p955
(dp956
g5
S'20191128150032670091'
p957
sg7
I0
sg8
(dp958
S'pid'
p959
I124119
sS'retcode'
p960
I0
sS'stderr'
p961
g13
sS'stdout'
p962
S'10.10.26.32|15935|5189|32.56%|8|0.027|214.8|10.8|5.03%|\xe8\x99\x9a\xe6\x8b\x9f\xe6\x9c\xba'
p963
sssa(dp964
S'192.168.1.103'
p965
(dp966
g5
S'20191128150032670091'
p967
sg7
I0
sg8
(dp968
S'pid'
p969
I7457
sS'retcode'
p970
I0
sS'stderr'
p971
S'/tmp/tmpq1Ar9g.sh: line 46: dmidecode: command not found'
p972
sS'stdout'
p973
S'192.168.1.103|15950|11871|74.43%|8|1.939|247|97.6|39.51%|\xe7\x89\xa9\xe7\x90\x86\xe6\x9c\xba'
p974
sssa(dp975
S'192.168.1.109'
p976
(dp977
g5
S'20191128150032670091'
p978
sg7
I0
sg8
(dp979
S'pid'
p980
I52183
sS'retcode'
p981
I0
sS'stderr'
p982
g13
sS'stdout'
p983
S'192.168.1.109|128936|72629|56.33%|64|1.255|3596.5|605.1|16.82%|\xe7\x89\xa9\xe7\x90\x86\xe6\x9c\xba'
p984
sssa(dp985
S'10.11.2.1'
p986
(dp987
g5
S'20191128150032670091'
p988
sg7
I0
sg8
(dp989
S'pid'
p990
I4543
sS'retcode'
p991
I0
sS'stderr'
p992
g13
sS'stdout'
p993
S'10.11.2.1|64309|45836|71.28%|48|1.409|60605.6|15826.8|26.11%|\xe7\x89\xa9\xe7\x90\x86\xe6\x9c\xba'
p994
sssa(dp995
S'192.168.1.121'
p996
(dp997
g5
S'20191128150032670091'
p998
sg7
I0
sg8
(dp999
S'pid'
p1000
I10862
sS'retcode'
p1001
I0
sS'stderr'
p1002
S'/tmp/tmp1JFmXW.sh: line 46: dmidecode: command not found'
p1003
sS'stdout'
p1004
S'192.168.1.121|7872|254|3.23%|4|0.000|107.4|14.9|13.87%|\xe7\x89\xa9\xe7\x90\x86\xe6\x9c\xba'
p1005
sssa(dp1006
S'192.168.1.105'
p1007
(dp1008
g5
S'20191128150032670091'
p1009
sg7
I0
sg8
(dp1010
S'pid'
p1011
I17913
sS'retcode'
p1012
I0
sS'stderr'
p1013
S'/tmp/tmpV1jpMl.sh: line 46: dmidecode: command not found'
p1014
sS'stdout'
p1015
S'192.168.1.105|3832|3412|89.04%|4|0.021|107.4|18.5|17.23%|\xe7\x89\xa9\xe7\x90\x86\xe6\x9c\xba'
p1016
sssa(dp1017
S'10.10.21.4'
p1018
(dp1019
g5
S'20191128150032670091'
p1020
sg7
I0
sg8
(dp1021
S'pid'
p1022
I16737
sS'retcode'
p1023
I0
sS'stderr'
p1024
g13
sS'stdout'
p1025
S'10.10.21.4|113751|14899|11.58%|32|0.184|30605.6|12265.1|40.07%|\xe7\x89\xa9\xe7\x90\x86\xe6\x9c\xba'
p1026
sssa(dp1027
S'10.11.1.10'
p1028
(dp1029
g5
S'20191128150032670091'
p1030
sg7
I0
sg8
(dp1031
S'pid'
p1032
I54521
sS'retcode'
p1033
I0
sS'stderr'
p1034
g13
sS'stdout'
p1035
S'10.11.1.10|15935|752|4.72%|8|0.012|107.4|3.1|2.89%|\xe8\x99\x9a\xe6\x8b\x9f\xe6\x9c\xba'
p1036
sssa(dp1037
S'192.168.1.115'
p1038
(dp1039
g5
S'20191128150032670091'
p1040
sg7
I0
sg8
(dp1041
S'pid'
p1042
I17836
sS'retcode'
p1043
I0
sS'stderr'
p1044
S'/tmp/tmpLCvA9q.sh: line 46: dmidecode: command not found'
p1045
sS'stdout'
p1046
S'192.168.1.115|32240|5588|17.33%|4|0.061|322.1|250.4|77.74%|\xe7\x89\xa9\xe7\x90\x86\xe6\x9c\xba'
p1047
sssa(dp1048
S'10.86.160.111'
p1049
(dp1050
g5
S'20191128150032670091'
p1051
sg7
I0
sg8
(dp1052
S'pid'
p1053
I6769
sS'retcode'
p1054
I0
sS'stderr'
p1055
S'/tmp/tmpUE1gYJ.sh: line 46: dmidecode: command not found'
p1056
sS'stdout'
p1057
S'10.86.160.111|15950|13586|85.18%|8|0.457|107.4|71.2|66.29%|\xe7\x89\xa9\xe7\x90\x86\xe6\x9c\xba'
p1058
sssa(dp1059
S'10.11.2.25'
p1060
(dp1061
g5
S'20191128150032670091'
p1062
sg7
I0
sg8
(dp1063
S'pid'
p1064
I20865
sS'retcode'
p1065
I0
sS'stderr'
p1066
g13
sS'stdout'
p1067
S'10.11.2.25|15951|3202|20.07%|4|1.045|536.9|166.0|30.92%|\xe8\x99\x9a\xe6\x8b\x9f\xe6\x9c\xba'
p1068
sssa(dp1069
S'10.11.3.11'
p1070
(dp1071
g5
S'20191128150032670091'
p1072
sg7
I0
sg8
(dp1073
S'pid'
p1074
I78726
sS'retcode'
p1075
I0
sS'stderr'
p1076
g13
sS'stdout'
p1077
S'10.11.3.11|15934|395|2.48%|4|0.004|107.4|2.2|2.05%|\xe8\x99\x9a\xe6\x8b\x9f\xe6\x9c\xba'
p1078
sssa(dp1079
S'192.168.1.130'
p1080
(dp1081
g5
S'20191128150032670091'
p1082
sg7
I0
sg8
(dp1083
S'pid'
p1084
I10076
sS'retcode'
p1085
I0
sS'stderr'
p1086
S'/tmp/tmpMWd4Fi.sh: line 46: dmidecode: command not found'
p1087
sS'stdout'
p1088
S'192.168.1.130|15951|1883|11.80%|4|0.674|214.8|38.9|18.11%|\xe7\x89\xa9\xe7\x90\x86\xe6\x9c\xba'
p1089
sssa(dp1090
S'10.10.26.21'
p1091
(dp1092
g5
S'20191128150032670091'
p1093
sg7
I0
sg8
(dp1094
S'pid'
p1095
I15818
sS'retcode'
p1096
I0
sS'stderr'
p1097
g13
sS'stdout'
p1098
S'10.10.26.21|9977|5908|37.19%|8|0.352|214.8|51.7|24.07%|\xe8\x99\x9a\xe6\x8b\x9f\xe6\x9c\xba'
p1099
sssa(dp1100
S'10.11.3.104'
p1101
(dp1102
g5
S'20191128150032670091'
p1103
sg7
I0
sg8
(dp1104
S'pid'
p1105
I440340
sS'retcode'
p1106
I0
sS'stderr'
p1107
g13
sS'stdout'
p1108
S'10.11.3.104|49157|14987|23.36%|32|0.561|26605.3|11077.2|41.64%|\xe7\x89\xa9\xe7\x90\x86\xe6\x9c\xba'
p1109
sssa(dp1110
S'10.11.3.9'
p1111
(dp1112
g5
S'20191128150032670091'
p1113
sg7
I0
sg8
(dp1114
S'pid'
p1115
I31472
sS'retcode'
p1116
I0
sS'stderr'
p1117
g13
sS'stdout'
p1118
S'10.11.3.9|15935|6179|38.78%|4|0.040|274.9|36.7|13.35%|\xe8\x99\x9a\xe6\x8b\x9f\xe6\x9c\xba'
p1119
sssa(dp1120
S'10.11.6.20'
p1121
(dp1122
g5
S'20191128150032670091'
p1123
sg7
I0
sg8
(dp1124
S'pid'
p1125
I17918
sS'retcode'
p1126
I0
sS'stderr'
p1127
g13
sS'stdout'
p1128
S'10.11.6.20|64028|14992|23.41%|16|5.242|16602.2|7191.8|43.32%|\xe7\x89\xa9\xe7\x90\x86\xe6\x9c\xba'
p1129
sssa(dp1130
S'192.168.2.27'
p1131
(dp1132
g5
S'20191128150032670091'
p1133
sg7
I0
sg8
(dp1134
S'pid'
p1135
I5357
sS'retcode'
p1136
I0
sS'stderr'
p1137
g13
sS'stdout'
p1138
S'192.168.2.27|7872|349|4.43%|4|0.001|53.7|2.5|4.66%|\xe8\x99\x9a\xe6\x8b\x9f\xe6\x9c\xba'
p1139
sssa(dp1140
S'192.168.1.37'
p1141
(dp1142
g5
S'20191128150032670091'
p1143
sg7
I0
sg8
(dp1144
S'pid'
p1145
I12262
sS'retcode'
p1146
I0
sS'stderr'
p1147
S'/tmp/tmpcTLeUQ.sh: line 46: dmidecode: command not found'
p1148
sS'stdout'
p1149
S'192.168.1.37|7872|4307|54.71%|4|0.002|107.4|19.7|18.34%|\xe7\x89\xa9\xe7\x90\x86\xe6\x9c\xba'
p1150
sssa(dp1151
S'192.168.1.128'
p1152
(dp1153
g5
S'20191128150032670091'
p1154
sg7
I0
sg8
(dp1155
S'pid'
p1156
I22115
sS'retcode'
p1157
I0
sS'stderr'
p1158
g13
sS'stdout'
p1159
S'192.168.1.128|3832|439|11.46%|2|0.191|53.7|8.1|15.08%|\xe8\x99\x9a\xe6\x8b\x9f\xe6\x9c\xba'
p1160
sssa(dp1161
S'10.86.160.116'
p1162
(dp1163
g5
S'20191128150032670091'
p1164
sg7
I0
sg8
(dp1165
S'pid'
p1166
I21146
sS'retcode'
p1167
I0
sS'stderr'
p1168
S'/tmp/tmpbQKiKQ.sh: line 46: dmidecode: command not found'
p1169
sS'stdout'
p1170
S'10.86.160.116|15950|6823|42.78%|8|0.056|107.4|54.5|50.74%|\xe7\x89\xa9\xe7\x90\x86\xe6\x9c\xba'
p1171
sssa(dp1172
S'192.168.1.89'
p1173
(dp1174
g5
S'20191128150032670091'
p1175
sg7
I0
sg8
(dp1176
S'pid'
p1177
I29340
sS'retcode'
p1178
I0
sS'stderr'
p1179
S'/tmp/tmpELZ68X.sh: line 46: dmidecode: command not found'
p1180
sS'stdout'
p1181
S'192.168.1.89|7872|2293|29.14%|4|0.002|107.4|31.0|28.86%|\xe7\x89\xa9\xe7\x90\x86\xe6\x9c\xba'
p1182
sssa(dp1183
S'192.168.2.150'
p1184
(dp1185
g5
S'20191128150032670091'
p1186
sg7
I0
sg8
(dp1187
S'pid'
p1188
I19741
sS'retcode'
p1189
I0
sS'stderr'
p1190
g13
sS'stdout'
p1191
S'192.168.2.150|31986|27165|84.93%|32|1.034|2999.4|1134.4|37.82%|\xe7\x89\xa9\xe7\x90\x86\xe6\x9c\xba'
p1192
sssa(dp1193
S'10.10.26.3'
p1194
(dp1195
g5
S'20191128150032670091'
p1196
sg7
I0
sg8
(dp1197
S'pid'
p1198
I27710
sS'retcode'
p1199
I0
sS'stderr'
p1200
S'/tmp/tmpzpBb9C.sh: line 46: dmidecode: command not found'
p1201
sS'stdout'
p1202
S'10.10.26.3|16081|15035|93.50%|8|0.066|107.4|62.3|58.01%|\xe7\x89\xa9\xe7\x90\x86\xe6\x9c\xba'
p1203
sssa(dp1204
S'10.11.10.4'
p1205
(dp1206
g5
S'20191128150032670091'
p1207
sg7
I0
sg8
(dp1208
S'pid'
p1209
I17413
sS'retcode'
p1210
I0
sS'stderr'
p1211
g13
sS'stdout'
p1212
S'10.11.10.4|63697|570|0.89%|8|0.011|53.7|2.2|4.10%|\xe8\x99\x9a\xe6\x8b\x9f\xe6\x9c\xba'
p1213
sssa(dp1214
S'10.11.3.3'
p1215
(dp1216
g5
S'20191128150032670091'
p1217
sg7
I0
sg8
(dp1218
S'pid'
p1219
I63568
sS'retcode'
p1220
I0
sS'stderr'
p1221
g13
sS'stdout'
p1222
S'10.11.3.3|15935|8054|50.54%|4|0.026|274.9|15.4|5.60%|\xe8\x99\x9a\xe6\x8b\x9f\xe6\x9c\xba'
p1223
sssa(dp1224
S'10.11.6.7'
p1225
(dp1226
g5
S'20191128150032670091'
p1227
sg7
I0
sg8
(dp1228
S'pid'
p1229
I16004
sS'retcode'
p1230
I0
sS'stderr'
p1231
g13
sS'stdout'
p1232
S'10.11.6.7|24015|12427|51.74%|4|1.147|322.1|182.9|56.78%|\xe8\x99\x9a\xe6\x8b\x9f\xe6\x9c\xba'
p1233
sssa(dp1234
S'192.168.2.22'
p1235
(dp1236
g5
S'20191128150032670091'
p1237
sg7
I0
sg8
(dp1238
S'pid'
p1239
I22514
sS'retcode'
p1240
I0
sS'stderr'
p1241
g13
sS'stdout'
p1242
S'192.168.2.22|32240|7203|22.34%|8|0.005|118.1|8.8|7.45%|\xe8\x99\x9a\xe6\x8b\x9f\xe6\x9c\xba'
p1243
sssa(dp1244
S'10.10.21.2'
p1245
(dp1246
g5
S'20191128150032670091'
p1247
sg7
I0
sg8
(dp1248
S'pid'
p1249
I18375
sS'retcode'
p1250
I0
sS'stderr'
p1251
g13
sS'stdout'
p1252
S'10.10.21.2|90106|38544|29.96%|32|4.156|30605.6|16184.9|52.88%|\xe7\x89\xa9\xe7\x90\x86\xe6\x9c\xba'
p1253
sssa(dp1254
S'10.11.1.9'
p1255
(dp1256
g5
S'20191128150032670091'
p1257
sg7
I0
sg8
(dp1258
S'pid'
p1259
I19879
sS'retcode'
p1260
I0
sS'stderr'
p1261
g13
sS'stdout'
p1262
S'10.11.1.9|15935|465|2.92%|8|1.072|107.4|3.4|3.17%|\xe8\x99\x9a\xe6\x8b\x9f\xe6\x9c\xba'
p1263
sssa(dp1264
S'192.168.2.100'
p1265
(dp1266
g5
S'20191128150032670091'
p1267
sg7
I0
sg8
(dp1268
S'pid'
p1269
I16703
sS'retcode'
p1270
I0
sS'stderr'
p1271
S'/tmp/tmp3F54jE.sh: line 46: dmidecode: command not found'
p1272
sS'stdout'
p1273
S'192.168.2.100|7872|5507|69.96%|4|0.001|107.4|44.7|41.62%|\xe7\x89\xa9\xe7\x90\x86\xe6\x9c\xba'
p1274
sssa(dp1275
S'192.168.1.117'
p1276
(dp1277
g5
S'20191128150032670091'
p1278
sg7
I0
sg8
(dp1279
S'pid'
p1280
I30110
sS'retcode'
p1281
I0
sS'stderr'
p1282
S'/tmp/tmpf3Hf2Q.sh: line 46: dmidecode: command not found'
p1283
sS'stdout'
p1284
S'192.168.1.117|32240|9099|28.22%|4|1.999|322.1|225.1|69.89%|\xe7\x89\xa9\xe7\x90\x86\xe6\x9c\xba'
p1285
sssa(dp1286
S'10.11.8.52'
p1287
(dp1288
g5
S'20191128150032670091'
p1289
sg7
I0
sg8
(dp1290
S'pid'
p1291
I19020
sS'retcode'
p1292
I0
sS'stderr'
p1293
S'/tmp/__salt.tmp.iDDwUp.sh: line 46: dmidecode: command not found'
p1294
sS'stdout'
p1295
S'10.11.8.52|7872|1774|22.52%|4|0.249|214.8|122.4|56.98%|\xe7\x89\xa9\xe7\x90\x86\xe6\x9c\xba'
p1296
sssa(dp1297
S'10.11.3.106'
p1298
(dp1299
g5
S'20191128150032670091'
p1300
sg7
I0
sg8
(dp1301
S'pid'
p1302
I420033
sS'retcode'
p1303
I0
sS'stderr'
p1304
g13
sS'stdout'
p1305
S'10.11.3.106|51241|12900|20.11%|32|0.171|26605.3|10012.3|37.63%|\xe7\x89\xa9\xe7\x90\x86\xe6\x9c\xba'
p1306
sssa(dp1307
S'192.168.1.114'
p1308
(dp1309
g5
S'20191128150032670091'
p1310
sg7
I0
sg8
(dp1311
S'pid'
p1312
I15545
sS'retcode'
p1313
I0
sS'stderr'
p1314
S'/tmp/tmpbBYeFu.sh: line 46: dmidecode: command not found'
p1315
sS'stdout'
p1316
S'192.168.1.114|15951|4304|26.98%|4|0.000|107.4|81.2|75.61%|\xe7\x89\xa9\xe7\x90\x86\xe6\x9c\xba'
p1317
sssa(dp1318
S'192.168.2.143'
p1319
(dp1320
g5
S'20191128150032670091'
p1321
sg7
I0
sg8
(dp1322
S'pid'
p1323
I29846
sS'retcode'
p1324
I0
sS'stderr'
p1325
S'/tmp/tmpRaBjCk.sh: line 46: dmidecode: command not found'
p1326
sS'stdout'
p1327
S'192.168.2.143|7872|4267|54.22%|4|0.013|107.4|7.1|6.61%|\xe7\x89\xa9\xe7\x90\x86\xe6\x9c\xba'
p1328
sssa(dp1329
S'10.11.6.6'
p1330
(dp1331
g5
S'20191128150032670091'
p1332
sg7
I0
sg8
(dp1333
S'pid'
p1334
I85212
sS'retcode'
p1335
I0
sS'stderr'
p1336
g13
sS'stdout'
p1337
S'10.11.6.6|24015|19491|81.16%|4|0.465|322.1|213.1|66.16%|\xe8\x99\x9a\xe6\x8b\x9f\xe6\x9c\xba'
p1338
sssa(dp1339
S'10.11.2.13'
p1340
(dp1341
g5
S'20191128150032670091'
p1342
sg7
I0
sg8
(dp1343
S'pid'
p1344
I32347
sS'retcode'
p1345
I0
sS'stderr'
p1346
g13
sS'stdout'
p1347
S'10.11.2.13|257911|56824|22.03%|32|0.005|80615|3816.4|4.73%|\xe7\x89\xa9\xe7\x90\x86\xe6\x9c\xba'
p1348
sssa(dp1349
S'10.11.10.6'
p1350
(dp1351
g5
S'20191128150032670091'
p1352
sg7
I0
sg8
(dp1353
S'pid'
p1354
I19951
sS'retcode'
p1355
I0
sS'stderr'
p1356
g13
sS'stdout'
p1357
S'10.11.10.6|27578|4435|13.85%|8|0.024|161.1|5.5|3.41%|\xe8\x99\x9a\xe6\x8b\x9f\xe6\x9c\xba'
p1358
sssa(dp1359
S'192.168.1.101'
p1360
(dp1361
g5
S'20191128150032670091'
p1362
sg7
I0
sg8
(dp1363
S'pid'
p1364
I15699
sS'retcode'
p1365
I0
sS'stderr'
p1366
S'/tmp/tmpNvOFed.sh: line 46: dmidecode: command not found'
p1367
sS'stdout'
p1368
S'192.168.1.101|12040|10479|87.03%|4|0.635|236.2|75.2|31.84%|\xe7\x89\xa9\xe7\x90\x86\xe6\x9c\xba'
p1369
sssa(dp1370
S'192.168.2.213'
p1371
(dp1372
g5
S'20191128150032670091'
p1373
sg7
I0
sg8
(dp1374
S'pid'
p1375
I20447
sS'retcode'
p1376
I0
sS'stderr'
p1377
g13
sS'stdout'
p1378
S'192.168.2.213|128908|10269|7.97%|40|0.469|1798.7|263.3|14.64%|\xe7\x89\xa9\xe7\x90\x86\xe6\x9c\xba'
p1379
sssa(dp1380
S'10.10.21.7'
p1381
(dp1382
g5
S'20191128150032670091'
p1383
sg7
I0
sg8
(dp1384
S'pid'
p1385
I2592
sS'retcode'
p1386
I0
sS'stderr'
p1387
g13
sS'stdout'
p1388
S'10.10.21.7|102771|25879|20.12%|32|0.480|30605.6|15773.2|51.54%|\xe7\x89\xa9\xe7\x90\x86\xe6\x9c\xba'
p1389
sssa(dp1390
S'10.11.3.10'
p1391
(dp1392
g5
S'20191128150032670091'
p1393
sg7
I0
sg8
(dp1394
S'pid'
p1395
I21110
sS'retcode'
p1396
I0
sS'stderr'
p1397
g13
sS'stdout'
p1398
S'10.11.3.10|15935|6059|38.02%|4|0.048|274.9|36.9|13.42%|\xe8\x99\x9a\xe6\x8b\x9f\xe6\x9c\xba'
p1399
sssa(dp1400
S'10.11.3.105'
p1401
(dp1402
g5
S'20191128150032670091'
p1403
sg7
I0
sg8
(dp1404
S'pid'
p1405
I874276
sS'retcode'
p1406
I0
sS'stderr'
p1407
g13
sS'stdout'
p1408
S'10.11.3.105|30729|33414|52.09%|32|1.775|20604.1|1501.5|7.29%|\xe7\x89\xa9\xe7\x90\x86\xe6\x9c\xba'
p1409
sssa(dp1410
S'192.168.1.107'
p1411
(dp1412
g5
S'20191128150032670091'
p1413
sg7
I0
sg8
(dp1414
S'pid'
p1415
I458206
sS'retcode'
p1416
I0
sS'stderr'
p1417
g13
sS'stdout'
p1418
S'192.168.1.107|161255|98363|61.00%|48|1.741|1798.8|600.6|33.39%|\xe7\x89\xa9\xe7\x90\x86\xe6\x9c\xba'
p1419
sssa(dp1420
S'192.168.1.108'
p1421
(dp1422
g5
S'20191128150032670091'
p1423
sg7
I0
sg8
(dp1424
S'pid'
p1425
I105670
sS'retcode'
p1426
I0
sS'stderr'
p1427
g13
sS'stdout'
p1428
S'192.168.1.108|128937|98107|76.09%|64|5.702|1798.8|335.7|18.66%|\xe7\x89\xa9\xe7\x90\x86\xe6\x9c\xba'
p1429
sssa(dp1430
S'192.168.2.155'
p1431
(dp1432
g5
S'20191128150032670091'
p1433
sg7
I0
sg8
(dp1434
S'pid'
p1435
I19903
sS'retcode'
p1436
I0
sS'stderr'
p1437
S'/tmp/tmpdoLplX.sh: line 46: dmidecode: command not found'
p1438
sS'stdout'
p1439
S'192.168.2.155|7872|2600|33.03%|4|0.000|107.4|6.3|5.87%|\xe7\x89\xa9\xe7\x90\x86\xe6\x9c\xba'
p1440
sssa(dp1441
S'10.10.21.3'
p1442
(dp1443
g5
S'20191128150032670091'
p1444
sg7
I0
sg8
(dp1445
S'pid'
p1446
I19243
sS'retcode'
p1447
I0
sS'stderr'
p1448
g13
sS'stdout'
p1449
S'10.10.21.3|90282|38369|29.82%|32|4.398|30605.6|16052.7|52.45%|\xe7\x89\xa9\xe7\x90\x86\xe6\x9c\xba'
p1450
sssa(dp1451
S'10.11.2.26'
p1452
(dp1453
g5
S'20191128150032670091'
p1454
sg7
I0
sg8
(dp1455
S'pid'
p1456
I89931
sS'retcode'
p1457
I0
sS'stderr'
p1458
g13
sS'stdout'
p1459
S'10.11.2.26|13259|2611|16.45%|16|0.184|322.1|106.0|32.91%|\xe8\x99\x9a\xe6\x8b\x9f\xe6\x9c\xba'
p1460
sssa(dp1461
S'192.168.2.84'
p1462
(dp1463
g5
S'20191128150032670091'
p1464
sg7
I0
sg8
(dp1465
S'pid'
p1466
I11725
sS'retcode'
p1467
I0
sS'stderr'
p1468
S'/tmp/tmpSm2uNk.sh: line 46: dmidecode: command not found'
p1469
sS'stdout'
p1470
S'192.168.2.84|11912|1021|8.57%|4|0.007|107.4|8.9|8.29%|\xe7\x89\xa9\xe7\x90\x86\xe6\x9c\xba'
p1471
sssa(dp1472
S'192.168.2.23'
p1473
(dp1474
g5
S'20191128150032670091'
p1475
sg7
I0
sg8
(dp1476
S'pid'
p1477
I25697
sS'retcode'
p1478
I0
sS'stderr'
p1479
g13
sS'stdout'
p1480
S'192.168.2.23|15950|11119|69.71%|8|0.077|118.1|17.5|14.82%|\xe8\x99\x9a\xe6\x8b\x9f\xe6\x9c\xba'
p1481
sssa(dp1482
S'10.10.21.1'
p1483
(dp1484
g5
S'20191128150032670091'
p1485
sg7
I0
sg8
(dp1486
S'pid'
p1487
I17859
sS'retcode'
p1488
I0
sS'stderr'
p1489
g13
sS'stdout'
p1490
S'10.10.21.1|90133|38517|29.94%|32|4.829|30605.6|12692.7|41.47%|\xe7\x89\xa9\xe7\x90\x86\xe6\x9c\xba'
p1491
sssa(dp1492
S'192.168.1.123'
p1493
(dp1494
g5
S'20191128150032670091'
p1495
sg7
I0
sg8
(dp1496
S'pid'
p1497
I8668
sS'retcode'
p1498
I0
sS'stderr'
p1499
g13
sS'stdout'
p1500
S'192.168.1.123|16072|1670|10.39%|4|0.146|64.4|10.5|16.30%|\xe8\x99\x9a\xe6\x8b\x9f\xe6\x9c\xba'
p1501
sssa(dp1502
S'10.11.10.1'
p1503
(dp1504
g5
S'20191128150032670091'
p1505
sg7
I0
sg8
(dp1506
S'pid'
p1507
I30228
sS'retcode'
p1508
I0
sS'stderr'
p1509
g13
sS'stdout'
p1510
S'10.11.10.1|43800|20467|31.85%|8|0.028|53.7|6.2|11.55%|\xe8\x99\x9a\xe6\x8b\x9f\xe6\x9c\xba'
p1511
sssa(dp1512
S'10.10.26.20'
p1513
(dp1514
g5
S'20191128150032670091'
p1515
sg7
I0
sg8
(dp1516
S'pid'
p1517
I500
sS'retcode'
p1518
I0
sS'stderr'
p1519
g13
sS'stdout'
p1520
S'10.10.26.20|11662|4225|26.60%|8|0.167|214.8|20.5|9.54%|\xe8\x99\x9a\xe6\x8b\x9f\xe6\x9c\xba'
p1521
sssa(dp1522
S'192.168.1.124'
p1523
(dp1524
g5
S'20191128150032670091'
p1525
sg7
I0
sg8
(dp1526
S'pid'
p1527
I12417
sS'retcode'
p1528
I0
sS'stderr'
p1529
g13
sS'stdout'
p1530
S'192.168.1.124|32175|9406|29.23%|8|0.253|53.7|27.4|51.02%|\xe8\x99\x9a\xe6\x8b\x9f\xe6\x9c\xba'
p1531
sssa(dp1532
S'10.11.3.8'
p1533
(dp1534
g5
S'20191128150032670091'
p1535
sg7
I0
sg8
(dp1536
S'pid'
p1537
I115945
sS'retcode'
p1538
I0
sS'stderr'
p1539
g13
sS'stdout'
p1540
S'10.11.3.8|15935|10458|65.64%|4|0.628|274.9|57.7|20.99%|\xe8\x99\x9a\xe6\x8b\x9f\xe6\x9c\xba'
p1541
sssa(dp1542
S'10.10.21.6'
p1543
(dp1544
g5
S'20191128150032670091'
p1545
sg7
I0
sg8
(dp1546
S'pid'
p1547
I22850
sS'retcode'
p1548
I0
sS'stderr'
p1549
g13
sS'stdout'
p1550
S'10.10.21.6|109188|19462|15.13%|32|0.086|30605.6|3790.9|12.39%|\xe7\x89\xa9\xe7\x90\x86\xe6\x9c\xba'
p1551
sssa(dp1552
S'10.11.10.5'
p1553
(dp1554
g5
S'20191128150032670091'
p1555
sg7
I0
sg8
(dp1556
S'pid'
p1557
I13050
sS'retcode'
p1558
I0
sS'stderr'
p1559
g13
sS'stdout'
p1560
S'10.11.10.5|31049|964|3.01%|8|0.024|53.7|2.7|5.03%|\xe8\x99\x9a\xe6\x8b\x9f\xe6\x9c\xba'
p1561
sssa(dp1562
S'10.11.8.1'
p1563
(dp1564
g5
S'20191128150032670091'
p1565
sg7
I0
sg8
(dp1566
S'pid'
p1567
I7833
sS'retcode'
p1568
I0
sS'stderr'
p1569
g13
sS'stdout'
p1570
S'10.11.8.1|7872|3206|40.73%|4|0.007|279.2|62.1|22.24%|\xe8\x99\x9a\xe6\x8b\x9f\xe6\x9c\xba'
p1571
sssa(dp1572
S'10.10.26.34'
p1573
(dp1574
g5
S'20191128150032670091'
p1575
sg7
I0
sg8
(dp1576
S'pid'
p1577
I18586
sS'retcode'
p1578
I0
sS'stderr'
p1579
g13
sS'stdout'
p1580
S'10.10.26.34|14635|1251|7.87%|8|0.047|214.8|59.0|27.47%|\xe8\x99\x9a\xe6\x8b\x9f\xe6\x9c\xba'
p1581
sssa(dp1582
S'10.10.21.63'
p1583
(dp1584
g5
S'20191128150032670091'
p1585
sg7
I0
sg8
(dp1586
S'pid'
p1587
I11086
sS'retcode'
p1588
I0
sS'stderr'
p1589
g13
sS'stdout'
p1590
S'10.10.21.63|57291|70951|55.33%|32|14.750|80615|53994.1|66.98%|\xe7\x89\xa9\xe7\x90\x86\xe6\x9c\xba'
p1591
sssa(dp1592
S'192.168.1.125'
p1593
(dp1594
g5
S'20191128150032670091'
p1595
sg7
I0
sg8
(dp1596
S'pid'
p1597
I779
sS'retcode'
p1598
I0
sS'stderr'
p1599
S'/tmp/tmpyWJZ2r.sh: line 46: dmidecode: command not found'
p1600
sS'stdout'
p1601
S'192.168.1.125|3832|2936|76.62%|2|0.187|107.4|38.7|36.03%|\xe7\x89\xa9\xe7\x90\x86\xe6\x9c\xba'
p1602
sssa(dp1603
S'10.10.26.30'
p1604
(dp1605
g5
S'20191128150032670091'
p1606
sg7
I0
sg8
(dp1607
S'pid'
p1608
I10412
sS'retcode'
p1609
I0
sS'stderr'
p1610
g13
sS'stdout'
p1611
S'10.10.26.30|10573|5313|33.44%|8|0.114|214.8|56.5|26.30%|\xe8\x99\x9a\xe6\x8b\x9f\xe6\x9c\xba'
p1612
sssa(dp1613
S'10.10.21.14'
p1614
(dp1615
g5
S'20191128150032670091'
p1616
sg7
I0
sg8
(dp1617
S'pid'
p1618
I5034
sS'retcode'
p1619
I0
sS'stderr'
p1620
g13
sS'stdout'
p1621
S'10.10.21.14|31221|32883|51.30%|40|2.248|1798.7|76.2|4.24%|\xe7\x89\xa9\xe7\x90\x86\xe6\x9c\xba'
p1622
sssa(dp1623
S'192.168.1.116'
p1624
(dp1625
g5
S'20191128150032670091'
p1626
sg7
I0
sg8
(dp1627
S'pid'
p1628
I6286
sS'retcode'
p1629
I0
sS'stderr'
p1630
S'/tmp/tmpGU2R7L.sh: line 46: dmidecode: command not found'
p1631
sS'stdout'
p1632
S'192.168.1.116|32240|6805|21.11%|4|0.797|322.1|275.4|85.50%|\xe7\x89\xa9\xe7\x90\x86\xe6\x9c\xba'
p1633
sssa(dp1634
S'10.10.21.67'
p1635
(dp1636
g5
S'20191128150032670091'
p1637
sg7
I0
sg8
(dp1638
S'pid'
p1639
I33362
sS'retcode'
p1640
I0
sS'stderr'
p1641
g13
sS'stdout'
p1642
S'10.10.21.67|125102|3253|2.53%|32|0.056|1558|473.0|30.36%|\xe7\x89\xa9\xe7\x90\x86\xe6\x9c\xba'
p1643
sssa(dp1644
S'10.10.26.18'
p1645
(dp1646
g5
S'20191128150032670091'
p1647
sg7
I0
sg8
(dp1648
S'pid'
p1649
I8600
sS'retcode'
p1650
I0
sS'stderr'
p1651
g13
sS'stdout'
p1652
S'10.10.26.18|14144|1742|10.97%|8|0.387|214.8|11.3|5.26%|\xe8\x99\x9a\xe6\x8b\x9f\xe6\x9c\xba'
p1653
sssa(dp1654
S'10.11.2.14'
p1655
(dp1656
g5
S'20191128150032670091'
p1657
sg7
I0
sg8
(dp1658
S'pid'
p1659
I15490
sS'retcode'
p1660
I0
sS'stderr'
p1661
g13
sS'stdout'
p1662
S'10.11.2.14|257911|55023|21.33%|32|0.012|80615|3867.7|4.80%|\xe7\x89\xa9\xe7\x90\x86\xe6\x9c\xba'
p1663
sssa(dp1664
S'10.11.2.12'
p1665
(dp1666
g5
S'20191128150032670091'
p1667
sg7
I0
sg8
(dp1668
S'pid'
p1669
I23539
sS'retcode'
p1670
I0
sS'stderr'
p1671
g13
sS'stdout'
p1672
S'10.11.2.12|257911|61733|23.94%|32|0.029|80615|3881.2|4.81%|\xe7\x89\xa9\xe7\x90\x86\xe6\x9c\xba'
p1673
sssa(dp1674
S'10.11.2.27'
p1675
(dp1676
g5
S'20191128150032670091'
p1677
sg7
I0
sg8
(dp1678
S'pid'
p1679
I30493
sS'retcode'
p1680
I0
sS'stderr'
p1681
g13
sS'stdout'
p1682
S'10.11.2.27|5668|2155|27.55%|4|0.366|85.9|33.2|38.65%|\xe8\x99\x9a\xe6\x8b\x9f\xe6\x9c\xba'
p1683
sssa(dp1684
S'192.168.1.131'
p1685
(dp1686
g5
S'20191128150032670091'
p1687
sg7
I0
sg8
(dp1688
S'pid'
p1689
I8789
sS'retcode'
p1690
I0
sS'stderr'
p1691
S'/tmp/__salt.tmp.0i7yRU.sh: line 46: dmidecode: command not found'
p1692
sS'stdout'
p1693
S'192.168.1.131|7872|4698|59.68%|4|0.011|214.8|45.3|21.09%|\xe7\x89\xa9\xe7\x90\x86\xe6\x9c\xba'
p1694
sssa(dp1695
S'10.11.2.30'
p1696
(dp1697
g5
S'20191128150032670091'
p1698
sg7
I0
sg8
(dp1699
S'pid'
p1700
I1702
sS'retcode'
p1701
I0
sS'stderr'
p1702
g13
sS'stdout'
p1703
S'10.11.2.30|7595|227|2.90%|4|0.011|64.4|2.5|3.88%|\xe8\x99\x9a\xe6\x8b\x9f\xe6\x9c\xba'
p1704
sssa(dp1705
S'192.168.1.118'
p1706
(dp1707
g5
S'20191128150032670091'
p1708
sg7
I0
sg8
(dp1709
S'pid'
p1710
I29700
sS'retcode'
p1711
I0
sS'stderr'
p1712
S'/tmp/tmpCqGnoy.sh: line 46: dmidecode: command not found'
p1713
sS'stdout'
p1714
S'192.168.1.118|32240|6722|20.85%|4|0.761|322.1|268.4|83.33%|\xe7\x89\xa9\xe7\x90\x86\xe6\x9c\xba'
p1715
sssa(dp1716
S'192.168.3.25'
p1717
(dp1718
g5
S'20191128150032670091'
p1719
sg7
I0
sg8
(dp1720
S'pid'
p1721
I20436
sS'retcode'
p1722
I0
sS'stderr'
p1723
S'/tmp/tmpZybcMm.sh: line 46: dmidecode: command not found'
p1724
sS'stdout'
p1725
S'192.168.3.25|7872|806|10.24%|4|0.091|322.1|172.8|53.65%|\xe7\x89\xa9\xe7\x90\x86\xe6\x9c\xba'
p1726
sssa(dp1727
S'10.11.2.11'
p1728
(dp1729
g5
S'20191128150032670091'
p1730
sg7
I0
sg8
(dp1731
S'pid'
p1732
I38904
sS'retcode'
p1733
I0
sS'stderr'
p1734
g13
sS'stdout'
p1735
S'10.11.2.11|257911|47456|18.40%|32|0.005|80615|3796.9|4.71%|\xe7\x89\xa9\xe7\x90\x86\xe6\x9c\xba'
p1736
sssa(dp1737
S'192.168.1.189'
p1738
(dp1739
g5
S'20191128150032670091'
p1740
sg7
I0
sg8
(dp1741
S'pid'
p1742
I19702
sS'retcode'
p1743
I0
sS'stderr'
p1744
S'/tmp/tmpWv10_G.sh: line 46: dmidecode: command not found'
p1745
sS'stdout'
p1746
S'192.168.1.189|15951|7433|46.60%|6|0.184|107.4|74.2|69.09%|\xe7\x89\xa9\xe7\x90\x86\xe6\x9c\xba'
p1747
sssa(dp1748
S'10.11.3.26'
p1749
(dp1750
g5
S'20191128150032670091'
p1751
sg7
I0
sg8
(dp1752
S'pid'
p1753
I5833
sS'retcode'
p1754
I0
sS'stderr'
p1755
g13
sS'stdout'
p1756
S'10.11.3.26|7578|243|3.11%|8|0.011|107.4|2.0|1.86%|\xe8\x99\x9a\xe6\x8b\x9f\xe6\x9c\xba'
p1757
sssa(dp1758
S'10.10.26.6'
p1759
(dp1760
g5
S'20191128150032670091'
p1761
sg7
I0
sg8
(dp1762
S'pid'
p1763
I31064
sS'retcode'
p1764
I0
sS'stderr'
p1765
g13
sS'stdout'
p1766
S'10.10.26.6|1107|2683|70.78%|8|0.030|107.4|5.1|4.75%|\xe8\x99\x9a\xe6\x8b\x9f\xe6\x9c\xba'
p1767
sssa(dp1768
S'192.168.3.26'
p1769
(dp1770
g5
S'20191128150032670091'
p1771
sg7
I0
sg8
(dp1772
S'pid'
p1773
I15529
sS'retcode'
p1774
I0
sS'stderr'
p1775
S'/tmp/tmp_E5SbG.sh: line 46: dmidecode: command not found'
p1776
sS'stdout'
p1777
S'192.168.3.26|7872|529|6.71%|4|0.017|107.4|2.9|2.70%|\xe7\x89\xa9\xe7\x90\x86\xe6\x9c\xba'
p1778
sssa(dp1779
S'10.11.3.27'
p1780
(dp1781
g5
S'20191128150032670091'
p1782
sg7
I0
sg8
(dp1783
S'pid'
p1784
I4080
sS'retcode'
p1785
I0
sS'stderr'
p1786
g13
sS'stdout'
p1787
S'10.11.3.27|7574|248|3.17%|8|0.010|107.4|2.0|1.86%|\xe8\x99\x9a\xe6\x8b\x9f\xe6\x9c\xba'
p1788
sssa(dp1789
S'10.10.26.2'
p1790
(dp1791
g5
S'20191128150032670091'
p1792
sg7
I0
sg8
(dp1793
S'pid'
p1794
I24561
sS'retcode'
p1795
I0
sS'stderr'
p1796
S'/tmp/__salt.tmp.aa_cuC.sh: line 46: dmidecode: command not found'
p1797
sS'stdout'
p1798
S'10.10.26.2|8001|6711|83.88%|4|35.701|107.4|83.2|77.47%|\xe7\x89\xa9\xe7\x90\x86\xe6\x9c\xba'
p1799
sssa(dp1800
S'10.10.21.5'
p1801
(dp1802
g5
S'20191128150032670091'
p1803
sg7
I0
sg8
(dp1804
S'pid'
p1805
I7984
sS'retcode'
p1806
I0
sS'stderr'
p1807
g13
sS'stdout'
p1808
S'10.10.21.5|106538|22112|17.19%|32|0.884|30605.6|3967.3|12.96%|\xe7\x89\xa9\xe7\x90\x86\xe6\x9c\xba'
p1809
sssa(dp1810
S'192.168.1.100'
p1811
(dp1812
g5
S'20191128150032670091'
p1813
sg7
I0
sg8
(dp1814
S'pid'
p1815
I1243
sS'retcode'
p1816
I0
sS'stderr'
p1817
S'/tmp/__salt.tmp.FU1Byv.sh: line 46: dmidecode: command not found'
p1818
sS'stdout'
p1819
S'192.168.1.100|12040|10870|90.28%|4|0.399|236.2|83.0|35.14%|\xe7\x89\xa9\xe7\x90\x86\xe6\x9c\xba'
p1820
sssa(dp1821
S'10.10.21.8'
p1822
(dp1823
g5
S'20191128150032670091'
p1824
sg7
I0
sg8
(dp1825
S'pid'
p1826
I8567
sS'retcode'
p1827
I0
sS'stderr'
p1828
g13
sS'stdout'
p1829
S'10.10.21.8|120813|7679|5.98%|40|0.289|1798.7|261.1|14.52%|\xe7\x89\xa9\xe7\x90\x86\xe6\x9c\xba'
p1830
sssa(dp1831
S'10.10.26.19'
p1832
(dp1833
g5
S'20191128150032670091'
p1834
sg7
I0
sg8
(dp1835
S'pid'
p1836
I3421
sS'retcode'
p1837
I0
sS'stderr'
p1838
g13
sS'stdout'
p1839
S'10.10.26.19|14681|1205|7.59%|8|0.160|214.8|10.9|5.07%|\xe8\x99\x9a\xe6\x8b\x9f\xe6\x9c\xba'
p1840
sssa(dp1841
S'10.10.21.9'
p1842
(dp1843
g5
S'20191128150032670091'
p1844
sg7
I0
sg8
(dp1845
S'pid'
p1846
I11241
sS'retcode'
p1847
I0
sS'stderr'
p1848
g13
sS'stdout'
p1849
S'10.10.21.9|103535|24958|19.42%|40|1.072|1798.7|565.9|31.46%|\xe7\x89\xa9\xe7\x90\x86\xe6\x9c\xba'
p1850
sssa(dp1851
S'10.10.26.15'
p1852
(dp1853
g5
S'20191128150032670091'
p1854
sg7
I0
sg8
(dp1855
S'pid'
p1856
I20080
sS'retcode'
p1857
I0
sS'stderr'
p1858
g13
sS'stdout'
p1859
S'10.10.26.15|4997|2825|36.12%|4|0.021|53.7|8.5|15.83%|\xe8\x99\x9a\xe6\x8b\x9f\xe6\x9c\xba'
p1860
sssa(dp1861
S'10.10.26.26'
p1862
(dp1863
g5
S'20191128150032670091'
p1864
sg7
I0
sg8
(dp1865
S'pid'
p1866
I29288
sS'retcode'
p1867
I0
sS'stderr'
p1868
g13
sS'stdout'
p1869
S'10.10.26.26|12924|2962|18.65%|8|0.095|214.8|23.5|10.94%|\xe8\x99\x9a\xe6\x8b\x9f\xe6\x9c\xba'
p1870
sssa(dp1871
S'192.168.1.102'
p1872
(dp1873
g5
S'20191128150032670091'
p1874
sg7
I0
sg8
(dp1875
S'pid'
p1876
I20937
sS'retcode'
p1877
I0
sS'stderr'
p1878
S'/tmp/tmpu6OKmk.sh: line 46: dmidecode: command not found'
p1879
sS'stdout'
p1880
S'192.168.1.102|12040|10243|85.07%|4|0.916|236.2|72.1|30.52%|\xe7\x89\xa9\xe7\x90\x86\xe6\x9c\xba'
p1881
sssa(dp1882
S'10.11.8.3'
p1883
(dp1884
g5
S'20191128150032670091'
p1885
sg7
I0
sg8
(dp1886
S'pid'
p1887
I16224
sS'retcode'
p1888
I0
sS'stderr'
p1889
g13
sS'stdout'
p1890
S'10.11.8.3|7178|645|8.23%|4|0.011|53.7|3.8|7.08%|\xe8\x99\x9a\xe6\x8b\x9f\xe6\x9c\xba'
p1891
sssa(dp1892
S'10.10.21.16'
p1893
(dp1894
g5
S'20191128150032670091'
p1895
sg7
I0
sg8
(dp1896
S'pid'
p1897
I30083
sS'retcode'
p1898
I0
sS'stderr'
p1899
g13
sS'stdout'
p1900
S'10.10.21.16|26312|37791|58.95%|40|2.848|1798.7|153.3|8.52%|\xe7\x89\xa9\xe7\x90\x86\xe6\x9c\xba'
p1901
sssa(dp1902
S'10.11.4.20'
p1903
(dp1904
g5
S'20191128150032670091'
p1905
sg7
I0
sg8
(dp1906
S'pid'
p1907
I6413
sS'retcode'
p1908
I0
sS'stderr'
p1909
g13
sS'stdout'
p1910
S'10.11.4.20|7711|4144|34.95%|8|0.025|107.4|17.3|16.11%|\xe8\x99\x9a\xe6\x8b\x9f\xe6\x9c\xba'
p1911
sssa(dp1912
S'10.10.26.31'
p1913
(dp1914
g5
S'20191128150032670091'
p1915
sg7
I0
sg8
(dp1916
S'pid'
p1917
I17951
sS'retcode'
p1918
I0
sS'stderr'
p1919
g13
sS'stdout'
p1920
S'10.10.26.31|10601|5284|33.26%|8|0.140|214.8|44.1|20.53%|\xe8\x99\x9a\xe6\x8b\x9f\xe6\x9c\xba'
p1921
sssa(dp1922
S'10.10.21.13'
p1923
(dp1924
g5
S'20191128150032670091'
p1925
sg7
I0
sg8
(dp1926
S'pid'
p1927
I30251
sS'retcode'
p1928
I0
sS'stderr'
p1929
g13
sS'stdout'
p1930
S'10.10.21.13|36905|27199|42.43%|40|0.202|1798.7|77.1|4.29%|\xe7\x89\xa9\xe7\x90\x86\xe6\x9c\xba'
p1931
sssa(dp1932
S'10.11.10.7'
p1933
(dp1934
g5
S'20191128150032670091'
p1935
sg7
I0
sg8
(dp1936
S'pid'
p1937
I21303
sS'retcode'
p1938
I0
sS'stderr'
p1939
g13
sS'stdout'
p1940
S'10.11.10.7|31398|616|1.92%|8|0.021|161.1|3.7|2.30%|\xe8\x99\x9a\xe6\x8b\x9f\xe6\x9c\xba'
p1941
sssa(dp1942
S'10.10.26.5'
p1943
(dp1944
g5
S'20191128150032670091'
p1945
sg7
I0
sg8
(dp1946
S'pid'
p1947
I29444
sS'retcode'
p1948
I0
sS'stderr'
p1949
g13
sS'stdout'
p1950
S'10.10.26.5|3479|4342|55.52%|8|0.064|107.4|36.1|33.61%|\xe8\x99\x9a\xe6\x8b\x9f\xe6\x9c\xba'
p1951
sssa(dp1952
S'10.10.26.14'
p1953
(dp1954
g5
S'20191128150032670091'
p1955
sg7
I0
sg8
(dp1956
S'pid'
p1957
I8654
sS'retcode'
p1958
I0
sS'stderr'
p1959
g13
sS'stdout'
p1960
S'10.10.26.14|4955|2867|36.65%|4|0.026|53.7|7.1|13.22%|\xe8\x99\x9a\xe6\x8b\x9f\xe6\x9c\xba'
p1961
sssa(dp1962
S'10.10.26.4'
p1963
(dp1964
g5
S'20191128150032670091'
p1965
sg7
I0
sg8
(dp1966
S'pid'
p1967
I23783
sS'retcode'
p1968
I0
sS'stderr'
p1969
g13
sS'stdout'
p1970
S'10.10.26.4|4994|2829|36.15%|4|0.041|107.4|29.7|27.65%|\xe8\x99\x9a\xe6\x8b\x9f\xe6\x9c\xba'
p1971
sssa(dp1972
S'10.10.26.27'
p1973
(dp1974
g5
S'20191128150032670091'
p1975
sg7
I0
sg8
(dp1976
S'pid'
p1977
I6662
sS'retcode'
p1978
I0
sS'stderr'
p1979
g13
sS'stdout'
p1980
S'10.10.26.27|13468|2418|15.22%|8|0.118|214.8|27.5|12.80%|\xe8\x99\x9a\xe6\x8b\x9f\xe6\x9c\xba'
p1981
sssa(dp1982
S'10.10.26.17'
p1983
(dp1984
g5
S'20191128150032670091'
p1985
sg7
I0
sg8
(dp1986
S'pid'
p1987
I3035
sS'retcode'
p1988
I0
sS'stderr'
p1989
S'/tmp/tmpxUrp34.sh: line 46: dmidecode: command not found'
p1990
sS'stdout'
p1991
S'10.10.26.17|7872|1563|19.84%|4|0.437|214.8|50.1|23.32%|\xe7\x89\xa9\xe7\x90\x86\xe6\x9c\xba'
p1992
sssa(dp1993
S'10.10.26.33'
p1994
(dp1995
g5
S'20191128150032670091'
p1996
sg7
I0
sg8
(dp1997
S'pid'
p1998
I5963
sS'retcode'
p1999
I0
sS'stderr'
p2000
g13
sS'stdout'
p2001
S'10.10.26.33|11155|4732|29.79%|8|0.223|214.8|37.1|17.27%|\xe8\x99\x9a\xe6\x8b\x9f\xe6\x9c\xba'
p2002
sssa(dp2003
S'10.11.3.25'
p2004
(dp2005
g5
S'20191128150032670091'
p2006
sg7
I0
sg8
(dp2007
S'pid'
p2008
I2729
sS'retcode'
p2009
I0
sS'stderr'
p2010
g13
sS'stdout'
p2011
S'10.11.3.25|7574|248|3.17%|8|0.010|107.4|2.0|1.86%|\xe8\x99\x9a\xe6\x8b\x9f\xe6\x9c\xba'
p2012
sssa(dp2013
S'10.10.21.66'
p2014
(dp2015
g5
S'20191128150032670091'
p2016
sg7
I0
sg8
(dp2017
S'pid'
p2018
I2843
sS'retcode'
p2019
I0
sS'stderr'
p2020
g13
sS'stdout'
p2021
S'10.10.21.66|126708|1646|1.28%|32|0.058|1558|23.8|1.53%|\xe7\x89\xa9\xe7\x90\x86\xe6\x9c\xba'
p2022
sssa(dp2023
S'10.11.3.103'
p2024
(dp2025
g5
S'20191128150032670091'
p2026
sg7
I0
sg8
(dp2027
S'pid'
p2028
I60989
sS'retcode'
p2029
I0
sS'stderr'
p2030
g13
sS'stdout'
p2031
S'10.11.3.103|112543|16152|12.55%|64|0.052|2398.4|478.2|19.94%|\xe7\x89\xa9\xe7\x90\x86\xe6\x9c\xba'
p2032
sssa(dp2033
S'10.10.26.13'
p2034
(dp2035
g5
S'20191128150032670091'
p2036
sg7
I0
sg8
(dp2037
S'pid'
p2038
I381
sS'retcode'
p2039
I0
sS'stderr'
p2040
g13
sS'stdout'
p2041
S'10.10.26.13|4698|3124|39.94%|4|0.026|53.7|7.1|13.22%|\xe8\x99\x9a\xe6\x8b\x9f\xe6\x9c\xba'
p2042
sssa(dp2043
S'10.10.26.25'
p2044
(dp2045
g5
S'20191128150032670091'
p2046
sg7
I0
sg8
(dp2047
S'pid'
p2048
I29483
sS'retcode'
p2049
I0
sS'stderr'
p2050
g13
sS'stdout'
p2051
S'10.10.26.25|10039|5848|36.81%|8|0.137|214.8|21.8|10.15%|\xe8\x99\x9a\xe6\x8b\x9f\xe6\x9c\xba'
p2052
sssa(dp2053
S'10.10.21.53'
p2054
(dp2055
g5
S'20191128150032670091'
p2056
sg7
I0
sg8
(dp2057
S'pid'
p2058
I44455
sS'retcode'
p2059
I0
sS'stderr'
p2060
g13
sS'stdout'
p2061
S'10.10.21.53|50743|77499|60.43%|32|12.654|80615|53895.5|66.86%|\xe7\x89\xa9\xe7\x90\x86\xe6\x9c\xba'
p2062
sssa(dp2063
S'192.168.3.27'
p2064
(dp2065
g5
S'20191128150032670091'
p2066
sg7
I0
sg8
(dp2067
S'pid'
p2068
I32230
sS'retcode'
p2069
I0
sS'stderr'
p2070
S'/tmp/tmpqlmNKE.sh: line 46: dmidecode: command not found'
p2071
sS'stdout'
p2072
S'192.168.3.27|7872|594|7.55%|4|0.006|107.4|46.5|43.30%|\xe7\x89\xa9\xe7\x90\x86\xe6\x9c\xba'
p2073
sssa(dp2074
S'192.168.1.133'
p2075
(dp2076
g5
S'20191128150032670091'
p2077
sg7
I0
sg8
(dp2078
S'pid'
p2079
I23318
sS'retcode'
p2080
I0
sS'stderr'
p2081
S'/tmp/__salt.tmp.avZu5O.sh: line 46: dmidecode: command not found'
p2082
sS'stdout'
p2083
S'192.168.1.133|15951|3705|23.23%|4|0.013|322.1|18.0|5.59%|\xe7\x89\xa9\xe7\x90\x86\xe6\x9c\xba'
p2084
sssa(dp2085
S'10.10.26.11'
p2086
(dp2087
g5
S'20191128150032670091'
p2088
sg7
I0
sg8
(dp2089
S'pid'
p2090
I3608
sS'retcode'
p2091
I0
sS'stderr'
p2092
g13
sS'stdout'
p2093
S'10.10.26.11|3527|4294|54.90%|4|0.024|53.7|9.8|18.25%|\xe8\x99\x9a\xe6\x8b\x9f\xe6\x9c\xba'
p2094
sssa(dp2095
S'10.11.10.2'
p2096
(dp2097
g5
S'20191128150032670091'
p2098
sg7
I0
sg8
(dp2099
S'pid'
p2100
I8891
sS'retcode'
p2101
I0
sS'stderr'
p2102
g13
sS'stdout'
p2103
S'10.11.10.2|52813|11454|17.82%|8|0.026|53.7|5.7|10.61%|\xe8\x99\x9a\xe6\x8b\x9f\xe6\x9c\xba'
p2104
sssa(dp2105
S'10.11.2.4'
p2106
(dp2107
g5
S'20191128150032670091'
p2108
sg7
I0
sg8
(dp2109
S'pid'
p2110
I1604
sS'retcode'
p2111
I0
sS'stderr'
p2112
g13
sS'stdout'
p2113
S'10.11.2.4|64309|29838|46.40%|48|0.083|40601.6|16363.3|40.30%|\xe7\x89\xa9\xe7\x90\x86\xe6\x9c\xba'
p2114
sssa(dp2115
S'10.10.21.65'
p2116
(dp2117
g5
S'20191128150032670091'
p2118
sg7
I0
sg8
(dp2119
S'pid'
p2120
I43284
sS'retcode'
p2121
I0
sS'stderr'
p2122
g13
sS'stdout'
p2123
S'10.10.21.65|125339|3015|2.35%|32|0.064|1558|7.1|0.46%|\xe7\x89\xa9\xe7\x90\x86\xe6\x9c\xba'
p2124
sssa(dp2125
S'10.10.21.68'
p2126
(dp2127
g5
S'20191128150032670091'
p2128
sg7
I0
sg8
(dp2129
S'pid'
p2130
I54272
sS'retcode'
p2131
I0
sS'stderr'
p2132
g13
sS'stdout'
p2133
S'10.10.21.68|116878|11476|8.94%|32|1.458|1558|8.0|0.51%|\xe7\x89\xa9\xe7\x90\x86\xe6\x9c\xba'
p2134
sssa(dp2135
S'10.11.3.24'
p2136
(dp2137
g5
S'20191128150032670091'
p2138
sg7
I0
sg8
(dp2139
S'pid'
p2140
I14390
sS'retcode'
p2141
I0
sS'stderr'
p2142
g13
sS'stdout'
p2143
S'10.11.3.24|7545|277|3.54%|8|0.012|107.4|2.7|2.51%|\xe8\x99\x9a\xe6\x8b\x9f\xe6\x9c\xba'
p2144
sssa(dp2145
S'10.10.21.54'
p2146
(dp2147
g5
S'20191128150032670091'
p2148
sg7
I0
sg8
(dp2149
S'pid'
p2150
I9602
sS'retcode'
p2151
I0
sS'stderr'
p2152
g13
sS'stdout'
p2153
S'10.10.21.54|66058|62182|48.49%|32|12.018|80615|53876.7|66.83%|\xe7\x89\xa9\xe7\x90\x86\xe6\x9c\xba'
p2154
sssa(dp2155
S'10.10.26.16'
p2156
(dp2157
g5
S'20191128150032670091'
p2158
sg7
I0
sg8
(dp2159
S'pid'
p2160
I2293
sS'retcode'
p2161
I0
sS'stderr'
p2162
g13
sS'stdout'
p2163
S'10.10.26.16|5224|2598|33.21%|4|0.035|53.7|7.3|13.59%|\xe8\x99\x9a\xe6\x8b\x9f\xe6\x9c\xba'
p2164
sssa(dp2165
S'10.10.26.28'
p2166
(dp2167
g5
S'20191128150032670091'
p2168
sg7
I0
sg8
(dp2169
S'pid'
p2170
I12404
sS'retcode'
p2171
I0
sS'stderr'
p2172
g13
sS'stdout'
p2173
S'10.10.26.28|10443|5442|34.26%|8|0.189|214.8|25.0|11.64%|\xe8\x99\x9a\xe6\x8b\x9f\xe6\x9c\xba'
p2174
sssa(dp2175
S'10.10.26.22'
p2176
(dp2177
g5
S'20191128150032670091'
p2178
sg7
I0
sg8
(dp2179
S'pid'
p2180
I18022
sS'retcode'
p2181
I0
sS'stderr'
p2182
g13
sS'stdout'
p2183
S'10.10.26.22|7666|8220|51.74%|8|0.179|214.8|36.9|17.18%|\xe8\x99\x9a\xe6\x8b\x9f\xe6\x9c\xba'
p2184
sssa(dp2185
S'10.10.26.29'
p2186
(dp2187
g5
S'20191128150032670091'
p2188
sg7
I0
sg8
(dp2189
S'pid'
p2190
I8301
sS'retcode'
p2191
I0
sS'stderr'
p2192
g13
sS'stdout'
p2193
S'10.10.26.29|7676|8211|51.68%|8|0.193|214.8|42.3|19.69%|\xe8\x99\x9a\xe6\x8b\x9f\xe6\x9c\xba'
p2194
sssa(dp2195
S'10.10.21.69'
p2196
(dp2197
g5
S'20191128150032670091'
p2198
sg7
I0
sg8
(dp2199
S'pid'
p2200
I26135
sS'retcode'
p2201
I0
sS'stderr'
p2202
g13
sS'stdout'
p2203
S'10.10.21.69|116180|12174|9.48%|32|1.350|1558|8.6|0.55%|\xe7\x89\xa9\xe7\x90\x86\xe6\x9c\xba'
p2204
sssa(dp2205
S'10.10.21.70'
p2206
(dp2207
g5
S'20191128150032670091'
p2208
sg7
I0
sg8
(dp2209
S'pid'
p2210
I42346
sS'retcode'
p2211
I0
sS'stderr'
p2212
g13
sS'stdout'
p2213
S'10.10.21.70|106197|22158|17.26%|32|1.741|1558|5.9|0.38%|\xe7\x89\xa9\xe7\x90\x86\xe6\x9c\xba'
p2214
sssa(dp2215
S'10.10.26.23'
p2216
(dp2217
g5
S'20191128150032670091'
p2218
sg7
I0
sg8
(dp2219
S'pid'
p2220
I30580
sS'retcode'
p2221
I0
sS'stderr'
p2222
g13
sS'stdout'
p2223
S'10.10.26.23|11362|4524|28.48%|8|0.129|214.8|31.1|14.48%|\xe8\x99\x9a\xe6\x8b\x9f\xe6\x9c\xba'
p2224
sssa(dp2225
S'192.168.2.76'
p2226
(dp2227
g5
S'20191128150032670091'
p2228
sg7
I0
sg8
(dp2229
S'pid'
p2230
I6666
sS'retcode'
p2231
I0
sS'stderr'
p2232
g13
sS'stdout'
p2233
S'192.168.2.76|31988|18939|59.21%|40|1.507|22003.8|15172.5|68.95%|\xe7\x89\xa9\xe7\x90\x86\xe6\x9c\xba'
p2234
sssa(dp2235
S'192.168.2.77'
p2236
(dp2237
g5
S'20191128150032670091'
p2238
sg7
I0
sg8
(dp2239
S'pid'
p2240
I15978
sS'retcode'
p2241
I0
sS'stderr'
p2242
g13
sS'stdout'
p2243
S'192.168.2.77|31988|19487|60.92%|40|1.937|22003.8|15266.5|69.38%|\xe7\x89\xa9\xe7\x90\x86\xe6\x9c\xba'
p2244
sssa(dp2245
S'10.10.26.38'
p2246
(dp2247
g5
S'20191128150032670091'
p2248
sg7
I0
sg8
(dp2249
S'pid'
p2250
I14190
sS'retcode'
p2251
I0
sS'stderr'
p2252
g13
sS'stdout'
p2253
S'10.10.26.38|7355|8530|53.70%|16|4.145|536.9|24.5|4.56%|\xe8\x99\x9a\xe6\x8b\x9f\xe6\x9c\xba'
p2254
sssa(dp2255
S'192.168.2.179'
p2256
(dp2257
g5
S'20191128150032670091'
p2258
sg7
I0
sg8
(dp2259
S'pid'
p2260
I55246
sS'retcode'
p2261
I0
sS'stderr'
p2262
S'/tmp/tmpNdn_9G.sh: line 46: dmidecode: command not found'
p2263
sS'stdout'
p2264
S'192.168.2.179|11912|8630|72.44%|4|0.028|107.4|10.5|9.78%|\xe7\x89\xa9\xe7\x90\x86\xe6\x9c\xba'
p2265
sssa(dp2266
S'10.10.26.24'
p2267
(dp2268
g5
S'20191128150032670091'
p2269
sg7
I0
sg8
(dp2270
S'pid'
p2271
I21369
sS'retcode'
p2272
I0
sS'stderr'
p2273
g13
sS'stdout'
p2274
S'10.10.26.24|11953|3933|24.76%|8|0.238|214.8|31.7|14.76%|\xe8\x99\x9a\xe6\x8b\x9f\xe6\x9c\xba'
p2275
sssa(dp2276
S'10.10.26.12'
p2277
(dp2278
g5
S'20191128150032670091'
p2279
sg7
I0
sg8
(dp2280
S'pid'
p2281
I28172
sS'retcode'
p2282
I0
sS'stderr'
p2283
g13
sS'stdout'
p2284
S'10.10.26.12|4856|2966|37.92%|4|0.027|53.7|7.8|14.53%|\xe8\x99\x9a\xe6\x8b\x9f\xe6\x9c\xba'
p2285
sssa(dp2286
S'192.168.1.190'
p2287
(dp2288
g5
S'20191128150032670091'
p2289
sg7
I0
sg8
(dp2290
S'pid'
p2291
I22232
sS'retcode'
p2292
I0
sS'stderr'
p2293
S'/tmp/tmp_aH7dk.sh: line 46: dmidecode: command not found'
p2294
sS'stdout'
p2295
S'192.168.1.190|15951|10443|65.47%|6|5.894|107.4|53.6|49.91%|\xe7\x89\xa9\xe7\x90\x86\xe6\x9c\xba'
p2296
sssa(dp2297
S'10.10.26.7'
p2298
(dp2299
g5
S'20191128150032670091'
p2300
sg7
I0
sg8
(dp2301
S'pid'
p2302
I14091
sS'retcode'
p2303
I0
sS'stderr'
p2304
g13
sS'stdout'
p2305
S'10.10.26.7|5557|10301|65.06%|8|2.035|107.4|58.9|54.84%|\xe8\x99\x9a\xe6\x8b\x9f\xe6\x9c\xba'
p2306
sssa(dp2307
S'10.10.21.55'
p2308
(dp2309
g5
S'20191128150032670091'
p2310
sg7
I0
sg8
(dp2311
S'pid'
p2312
I35538
sS'retcode'
p2313
I0
sS'stderr'
p2314
g13
sS'stdout'
p2315
S'10.10.21.55|59547|68694|53.57%|32|14.008|80615|53933.4|66.90%|\xe7\x89\xa9\xe7\x90\x86\xe6\x9c\xba'
p2316
sssa(dp2317
S'192.168.2.78'
p2318
(dp2319
g5
S'20191128150032670091'
p2320
sg7
I0
sg8
(dp2321
S'pid'
p2322
I14858
sS'retcode'
p2323
I0
sS'stderr'
p2324
g13
sS'stdout'
p2325
S'192.168.2.78|31988|19628|61.36%|40|1.411|22003.8|15144.6|68.83%|\xe7\x89\xa9\xe7\x90\x86\xe6\x9c\xba'
p2326
sssa(dp2327
S'10.10.21.17'
p2328
(dp2329
g5
S'20191128150032670091'
p2330
sg7
I0
sg8
(dp2331
S'pid'
p2332
I18981
sS'retcode'
p2333
I0
sS'stderr'
p2334
g13
sS'stdout'
p2335
S'10.10.21.17|58073|69740|54.56%|48|13.871|80615|55452.2|68.79%|\xe7\x89\xa9\xe7\x90\x86\xe6\x9c\xba'
p2336
sssa(dp2337
S'10.11.1.22'
p2338
(dp2339
g5
S'20191128150032670091'
p2340
sg7
I0
sg8
(dp2341
S'pid'
p2342
I768141
sS'retcode'
p2343
I0
sS'stderr'
p2344
g13
sS'stdout'
p2345
S'10.11.1.22|32109|30253|94.22%|8|0.133|536.9|169.2|31.51%|\xe8\x99\x9a\xe6\x8b\x9f\xe6\x9c\xba'
p2346
sssa(dp2347
S'10.11.6.2'
p2348
(dp2349
g5
S'20191128150032670091'
p2350
sg7
I0
sg8
(dp2351
S'pid'
p2352
I102477
sS'retcode'
p2353
I0
sS'stderr'
p2354
g13
sS'stdout'
p2355
S'10.11.6.2|28055|12568|44.79%|4|8.023|107.4|78.8|73.37%|\xe8\x99\x9a\xe6\x8b\x9f\xe6\x9c\xba'
p2356
sssa(dp2357
S'192.168.1.112'
p2358
(dp2359
g5
S'20191128150032670091'
p2360
sg7
I0
sg8
(dp2361
S'pid'
p2362
I28422
sS'retcode'
p2363
I0
sS'stderr'
p2364
g13
sS'stdout'
p2365
S'192.168.1.112|1101|6721|85.92%|4|1.060|107.4|51.0|47.49%|\xe8\x99\x9a\xe6\x8b\x9f\xe6\x9c\xba'
p2366
sssa(dp2367
S'10.11.6.14'
p2368
(dp2369
g5
S'20191128150032670091'
p2370
sg7
I0
sg8
(dp2371
S'pid'
p2372
I12864
sS'retcode'
p2373
I0
sS'stderr'
p2374
g13
sS'stdout'
p2375
S'10.11.6.14|64028|38185|59.64%|16|0.877|8600.6|671.9|7.81%|\xe7\x89\xa9\xe7\x90\x86\xe6\x9c\xba'
p2376
sssa(dp2377
S'10.10.21.22'
p2378
(dp2379
g5
S'20191128150032670091'
p2380
sg7
I0
sg8
(dp2381
S'pid'
p2382
I42297
sS'retcode'
p2383
I0
sS'stderr'
p2384
g13
sS'stdout'
p2385
S'10.10.21.22|42044|85761|67.10%|48|15.154|80615|61574.1|76.38%|\xe7\x89\xa9\xe7\x90\x86\xe6\x9c\xba'
p2386
sssa(dp2387
S'10.10.21.39'
p2388
(dp2389
g5
S'20191128150032670091'
p2390
sg7
I0
sg8
(dp2391
S'pid'
p2392
I43139
sS'retcode'
p2393
I0
sS'stderr'
p2394
g13
sS'stdout'
p2395
S'10.10.21.39|76190|52054|40.59%|32|13.152|80615|58008.6|71.96%|\xe7\x89\xa9\xe7\x90\x86\xe6\x9c\xba'
p2396
sssa(dp2397
S'10.11.6.13'
p2398
(dp2399
g5
S'20191128150032670091'
p2400
sg7
I0
sg8
(dp2401
S'pid'
p2402
I6004
sS'retcode'
p2403
I0
sS'stderr'
p2404
g13
sS'stdout'
p2405
S'10.11.6.13|64028|39387|61.52%|16|1.101|8600.6|653.5|7.60%|\xe7\x89\xa9\xe7\x90\x86\xe6\x9c\xba'
p2406
sssa(dp2407
S'10.10.21.10'
p2408
(dp2409
g5
S'20191128150032670091'
p2410
sg7
I0
sg8
(dp2411
S'pid'
p2412
I37725
sS'retcode'
p2413
I0
sS'stderr'
p2414
g13
sS'stdout'
p2415
S'10.10.21.10|23003|41100|64.12%|40|5.842|2398.2|931.1|38.82%|\xe7\x89\xa9\xe7\x90\x86\xe6\x9c\xba'
p2416
sssa(dp2417
S'10.10.21.12'
p2418
(dp2419
g5
S'20191128150032670091'
p2420
sg7
I0
sg8
(dp2421
S'pid'
p2422
I37360
sS'retcode'
p2423
I0
sS'stderr'
p2424
g13
sS'stdout'
p2425
S'10.10.21.12|26052|38052|59.36%|40|6.373|2398.2|953.7|39.77%|\xe7\x89\xa9\xe7\x90\x86\xe6\x9c\xba'
p2426
sssa(dp2427
S'10.10.21.24'
p2428
(dp2429
g5
S'20191128150032670091'
p2430
sg7
I0
sg8
(dp2431
S'pid'
p2432
I33405
sS'retcode'
p2433
I0
sS'stderr'
p2434
g13
sS'stdout'
p2435
S'10.10.21.24|52037|75735|59.25%|48|14.488|80615|61594.5|76.41%|\xe7\x89\xa9\xe7\x90\x86\xe6\x9c\xba'
p2436
sssa(dp2437
S'10.10.21.64'
p2438
(dp2439
g5
S'20191128150032670091'
p2440
sg7
I0
sg8
(dp2441
S'pid'
p2442
I28361
sS'retcode'
p2443
I0
sS'stderr'
p2444
g13
sS'stdout'
p2445
S'10.10.21.64|49613|78628|61.31%|32|13.434|80615|53922.8|66.89%|\xe7\x89\xa9\xe7\x90\x86\xe6\x9c\xba'
p2446
sssa(dp2447
S'10.10.21.21'
p2448
(dp2449
g5
S'20191128150032670091'
p2450
sg7
I0
sg8
(dp2451
S'pid'
p2452
I13770
sS'retcode'
p2453
I0
sS'stderr'
p2454
g13
sS'stdout'
p2455
S'10.10.21.21|63891|63924|50.01%|48|14.161|80615|61520.0|76.31%|\xe7\x89\xa9\xe7\x90\x86\xe6\x9c\xba'
p2456
sssa(dp2457
S'10.10.21.38'
p2458
(dp2459
g5
S'20191128150032670091'
p2460
sg7
I0
sg8
(dp2461
S'pid'
p2462
I42053
sS'retcode'
p2463
I0
sS'stderr'
p2464
g13
sS'stdout'
p2465
S'10.10.21.38|46569|81672|63.69%|32|14.702|80615|58187.7|72.18%|\xe7\x89\xa9\xe7\x90\x86\xe6\x9c\xba'
p2466
sssa(dp2467
S'10.10.21.50'
p2468
(dp2469
g5
S'20191128150032670091'
p2470
sg7
I0
sg8
(dp2471
S'pid'
p2472
I8841
sS'retcode'
p2473
I0
sS'stderr'
p2474
g13
sS'stdout'
p2475
S'10.10.21.50|61950|66292|51.69%|32|13.234|80615|53883.2|66.84%|\xe7\x89\xa9\xe7\x90\x86\xe6\x9c\xba'
p2476
sssa(dp2477
S'10.10.21.56'
p2478
(dp2479
g5
S'20191128150032670091'
p2480
sg7
I0
sg8
(dp2481
S'pid'
p2482
I42233
sS'retcode'
p2483
I0
sS'stderr'
p2484
g13
sS'stdout'
p2485
S'10.10.21.56|54518|73725|57.49%|32|12.931|80615|53947.6|66.92%|\xe7\x89\xa9\xe7\x90\x86\xe6\x9c\xba'
p2486
sssa(dp2487
S'10.10.21.62'
p2488
(dp2489
g5
S'20191128150032670091'
p2490
sg7
I0
sg8
(dp2491
S'pid'
p2492
I5307
sS'retcode'
p2493
I0
sS'stderr'
p2494
g13
sS'stdout'
p2495
S'10.10.21.62|61370|66872|52.14%|32|14.481|80615|54087.3|67.09%|\xe7\x89\xa9\xe7\x90\x86\xe6\x9c\xba'
p2496
sssa(dp2497
S'10.10.21.11'
p2498
(dp2499
g5
S'20191128150032670091'
p2500
sg7
I0
sg8
(dp2501
S'pid'
p2502
I13695
sS'retcode'
p2503
I0
sS'stderr'
p2504
g13
sS'stdout'
p2505
S'10.10.21.11|23808|40295|62.86%|40|6.130|2398.2|923.0|38.49%|\xe7\x89\xa9\xe7\x90\x86\xe6\x9c\xba'
p2506
sssa(dp2507
S'10.10.21.41'
p2508
(dp2509
g5
S'20191128150032670091'
p2510
sg7
I0
sg8
(dp2511
S'pid'
p2512
I36187
sS'retcode'
p2513
I0
sS'stderr'
p2514
g13
sS'stdout'
p2515
S'10.10.21.41|45848|82394|64.25%|32|14.307|80615|58017.6|71.97%|\xe7\x89\xa9\xe7\x90\x86\xe6\x9c\xba'
p2516
sssa(dp2517
S'10.10.21.52'
p2518
(dp2519
g5
S'20191128150032670091'
p2520
sg7
I0
sg8
(dp2521
S'pid'
p2522
I27867
sS'retcode'
p2523
I0
sS'stderr'
p2524
g13
sS'stdout'
p2525
S'10.10.21.52|51916|76327|59.52%|32|13.813|80615|53981.1|66.96%|\xe7\x89\xa9\xe7\x90\x86\xe6\x9c\xba'
p2526
sssa(dp2527
S'10.10.21.51'
p2528
(dp2529
g5
S'20191128150032670091'
p2530
sg7
I0
sg8
(dp2531
S'pid'
p2532
I24091
sS'retcode'
p2533
I0
sS'stderr'
p2534
g13
sS'stdout'
p2535
S'10.10.21.51|27464|100777|78.58%|32|13.092|80615|53931.5|66.90%|\xe7\x89\xa9\xe7\x90\x86\xe6\x9c\xba'
p2536
sssa(dp2537
S'10.10.21.61'
p2538
(dp2539
g5
S'20191128150032670091'
p2540
sg7
I0
sg8
(dp2541
S'pid'
p2542
I45224
sS'retcode'
p2543
I0
sS'stderr'
p2544
g13
sS'stdout'
p2545
S'10.10.21.61|59339|68904|53.73%|32|14.319|80615|53977.7|66.96%|\xe7\x89\xa9\xe7\x90\x86\xe6\x9c\xba'
p2546
sssa(dp2547
S'10.10.21.40'
p2548
(dp2549
g5
S'20191128150032670091'
p2550
sg7
I0
sg8
(dp2551
S'pid'
p2552
I56823
sS'retcode'
p2553
I0
sS'stderr'
p2554
g13
sS'stdout'
p2555
S'10.10.21.40|48722|79529|62.01%|32|14.325|80615|57936.8|71.87%|\xe7\x89\xa9\xe7\x90\x86\xe6\x9c\xba'
p2556
sssa(dp2557
S'10.10.21.45'
p2558
(dp2559
g5
S'20191128150032670091'
p2560
sg7
I0
sg8
(dp2561
S'pid'
p2562
I1183
sS'retcode'
p2563
I0
sS'stderr'
p2564
g13
sS'stdout'
p2565
S'10.10.21.45|50892|77352|60.32%|32|13.523|80615|57949.8|71.88%|\xe7\x89\xa9\xe7\x90\x86\xe6\x9c\xba'
p2566
sssa(dp2567
S'10.10.21.60'
p2568
(dp2569
g5
S'20191128150032670091'
p2570
sg7
I0
sg8
(dp2571
S'pid'
p2572
I9132
sS'retcode'
p2573
I0
sS'stderr'
p2574
g13
sS'stdout'
p2575
S'10.10.21.60|51973|76275|59.47%|32|15.249|80615|54064.7|67.07%|\xe7\x89\xa9\xe7\x90\x86\xe6\x9c\xba'
p2576
sssa(dp2577
S'10.10.21.35'
p2578
(dp2579
g5
S'20191128150032670091'
p2580
sg7
I0
sg8
(dp2581
S'pid'
p2582
I23420
sS'retcode'
p2583
I0
sS'stderr'
p2584
g13
sS'stdout'
p2585
S'10.10.21.35|36673|91570|71.40%|32|11.888|80615|58271.7|72.28%|\xe7\x89\xa9\xe7\x90\x86\xe6\x9c\xba'
p2586
sssa(dp2587
S'10.10.21.59'
p2588
(dp2589
g5
S'20191128150032670091'
p2590
sg7
I0
sg8
(dp2591
S'pid'
p2592
I10860
sS'retcode'
p2593
I0
sS'stderr'
p2594
g13
sS'stdout'
p2595
S'10.10.21.59|39886|88356|68.90%|32|13.655|80615|53985.6|66.97%|\xe7\x89\xa9\xe7\x90\x86\xe6\x9c\xba'
p2596
sssa(dp2597
S'10.10.21.46'
p2598
(dp2599
g5
S'20191128150032670091'
p2600
sg7
I0
sg8
(dp2601
S'pid'
p2602
I36243
sS'retcode'
p2603
I0
sS'stderr'
p2604
g13
sS'stdout'
p2605
S'10.10.21.46|32089|96152|74.98%|32|12.928|80615|58036.2|71.99%|\xe7\x89\xa9\xe7\x90\x86\xe6\x9c\xba'
p2606
sssa(dp2607
S'10.10.21.37'
p2608
(dp2609
g5
S'20191128150032670091'
p2610
sg7
I0
sg8
(dp2611
S'pid'
p2612
I953
sS'retcode'
p2613
I0
sS'stderr'
p2614
g13
sS'stdout'
p2615
S'10.10.21.37|38609|89641|69.90%|32|13.056|80615|58393.8|72.44%|\xe7\x89\xa9\xe7\x90\x86\xe6\x9c\xba'
p2616
sssa(dp2617
S'192.168.1.51'
p2618
(dp2619
g5
S'20191128150032670091'
p2620
sg7
I0
sg8
(dp2621
S'pid'
p2622
I16663
sS'retcode'
p2623
I0
sS'stderr'
p2624
g13
sS'stdout'
p2625
S'192.168.1.51|7872|6084|77.29%|4|0.172|85.9|46.6|54.25%|\xe8\x99\x9a\xe6\x8b\x9f\xe6\x9c\xba'
p2626
sssa(dp2627
S'10.10.21.58'
p2628
(dp2629
g5
S'20191128150032670091'
p2630
sg7
I0
sg8
(dp2631
S'pid'
p2632
I1594
sS'retcode'
p2633
I0
sS'stderr'
p2634
g13
sS'stdout'
p2635
S'10.10.21.58|44794|83449|65.07%|32|13.128|80615|53918.4|66.88%|\xe7\x89\xa9\xe7\x90\x86\xe6\x9c\xba'
p2636
sssa(dp2637
S'10.10.21.57'
p2638
(dp2639
g5
S'20191128150032670091'
p2640
sg7
I0
sg8
(dp2641
S'pid'
p2642
I39098
sS'retcode'
p2643
I0
sS'stderr'
p2644
g13
sS'stdout'
p2645
S'10.10.21.57|45811|82433|64.28%|32|15.674|80615|53985.7|66.97%|\xe7\x89\xa9\xe7\x90\x86\xe6\x9c\xba'
p2646
sssa(dp2647
S'10.10.21.36'
p2648
(dp2649
g5
S'20191128150032670091'
p2650
sg7
I0
sg8
(dp2651
S'pid'
p2652
I13400
sS'retcode'
p2653
I0
sS'stderr'
p2654
g13
sS'stdout'
p2655
S'10.10.21.36|40585|87658|68.35%|32|14.196|80615|58353.9|72.39%|\xe7\x89\xa9\xe7\x90\x86\xe6\x9c\xba'
p2656
sssa(dp2657
S'10.10.21.19'
p2658
(dp2659
g5
S'20191128150032670091'
p2660
sg7
I0
sg8
(dp2661
S'pid'
p2662
I7354
sS'retcode'
p2663
I0
sS'stderr'
p2664
g13
sS'stdout'
p2665
S'10.10.21.19|36096|91719|71.76%|48|14.125|80615|61650.0|76.47%|\xe7\x89\xa9\xe7\x90\x86\xe6\x9c\xba'
p2666
sssa(dp2667
S'10.10.21.20'
p2668
(dp2669
g5
S'20191128150032670091'
p2670
sg7
I0
sg8
(dp2671
S'pid'
p2672
I18613
sS'retcode'
p2673
I0
sS'stderr'
p2674
g13
sS'stdout'
p2675
S'10.10.21.20|44108|83709|65.49%|48|12.477|80615|61579.1|76.39%|\xe7\x89\xa9\xe7\x90\x86\xe6\x9c\xba'
p2676
sssa(dp2677
S'10.10.21.23'
p2678
(dp2679
g5
S'20191128150032670091'
p2680
sg7
I0
sg8
(dp2681
S'pid'
p2682
I48649
sS'retcode'
p2683
I0
sS'stderr'
p2684
g13
sS'stdout'
p2685
S'10.10.21.23|54848|72969|57.09%|48|11.076|80615|61621.1|76.44%|\xe7\x89\xa9\xe7\x90\x86\xe6\x9c\xba'
p2686
sssa(dp2687
S'192.168.2.52'
p2688
(dp2689
g5
S'20191128150032670091'
p2690
sg7
I0
sg8
(dp2691
S'pid'
p2692
I21865
sS'retcode'
p2693
I0
sS'stderr'
p2694
g13
sS'stdout'
p2695
S'192.168.2.52|128929|4433|3.44%|16|0.275|2297.2|667.2|29.04%|\xe7\x89\xa9\xe7\x90\x86\xe6\x9c\xba'
p2696
sssa(dp2697
S'192.168.2.51'
p2698
(dp2699
g5
S'20191128150032670091'
p2700
sg7
I0
sg8
(dp2701
S'pid'
p2702
I26719
sS'retcode'
p2703
I0
sS'stderr'
p2704
g13
sS'stdout'
p2705
S'192.168.2.51|128929|4661|3.61%|16|0.054|2297.2|151.3|6.59%|\xe7\x89\xa9\xe7\x90\x86\xe6\x9c\xba'
p2706
sssa(dp2707
S'10.10.21.47'
p2708
(dp2709
g5
S'20191128150032670091'
p2710
sg7
I0
sg8
(dp2711
S'pid'
p2712
I51423
sS'retcode'
p2713
I0
sS'stderr'
p2714
g13
sS'stdout'
p2715
S'10.10.21.47|50684|77558|60.48%|32|12.954|80615|58030.6|71.98%|\xe7\x89\xa9\xe7\x90\x86\xe6\x9c\xba'
p2716
sssa(dp2717
S'10.10.21.18'
p2718
(dp2719
g5
S'20191128150032670091'
p2720
sg7
I0
sg8
(dp2721
S'pid'
p2722
I32801
sS'retcode'
p2723
I0
sS'stderr'
p2724
g13
sS'stdout'
p2725
S'10.10.21.18|32590|95487|74.55%|48|14.290|80615|61545.0|76.34%|\xe7\x89\xa9\xe7\x90\x86\xe6\x9c\xba'
p2726
sssa(dp2727
S'10.10.21.43'
p2728
(dp2729
g5
S'20191128150032670091'
p2730
sg7
I0
sg8
(dp2731
S'pid'
p2732
I14269
sS'retcode'
p2733
I0
sS'stderr'
p2734
g13
sS'stdout'
p2735
S'10.10.21.43|41481|86760|67.65%|32|15.135|80615|55421.4|68.75%|\xe7\x89\xa9\xe7\x90\x86\xe6\x9c\xba'
p2736
sssa(dp2737
S'10.10.21.42'
p2738
(dp2739
g5
S'20191128150032670091'
p2740
sg7
I0
sg8
(dp2741
S'pid'
p2742
I42834
sS'retcode'
p2743
I0
sS'stderr'
p2744
g13
sS'stdout'
p2745
S'10.10.21.42|48569|79695|62.14%|32|13.422|80615|57957.9|71.89%|\xe7\x89\xa9\xe7\x90\x86\xe6\x9c\xba'
p2746
sssa(dp2747
S'10.10.21.44'
p2748
(dp2749
g5
S'20191128150032670091'
p2750
sg7
I0
sg8
(dp2751
S'pid'
p2752
I25402
sS'retcode'
p2753
I0
sS'stderr'
p2754
g13
sS'stdout'
p2755
S'10.10.21.44|47846|80396|62.69%|32|13.664|80615|57952.4|71.89%|\xe7\x89\xa9\xe7\x90\x86\xe6\x9c\xba'
p2756
sssa(dp2757
S'10.10.26.39'
p2758
(dp2759
g5
S'20191128150032670091'
p2760
sg7
I0
sg8
(dp2761
S'pid'
p2762
I26968
sS'retcode'
p2763
I0
sS'stderr'
p2764
g13
sS'stdout'
p2765
S'10.10.26.39|12786|3097|19.50%|16|0.124|536.9|81.6|15.20%|\xe8\x99\x9a\xe6\x8b\x9f\xe6\x9c\xba'
p2766
sssa(dp2767
S'10.10.26.37'
p2768
(dp2769
g5
S'20191128150032670091'
p2770
sg7
I0
sg8
(dp2771
S'pid'
p2772
I11695
sS'retcode'
p2773
I0
sS'stderr'
p2774
g13
sS'stdout'
p2775
S'10.10.26.37|9972|5912|37.21%|16|4.333|536.9|45.0|8.38%|\xe8\x99\x9a\xe6\x8b\x9f\xe6\x9c\xba'
p2776
sssa(dp2777
S'10.10.21.48'
p2778
(dp2779
g5
S'20191128150032670091'
p2780
sg7
I0
sg8
(dp2781
S'pid'
p2782
I39731
sS'retcode'
p2783
I0
sS'stderr'
p2784
g13
sS'stdout'
p2785
S'10.10.21.48|34638|93604|72.99%|32|13.873|80615|57990.9|71.94%|\xe7\x89\xa9\xe7\x90\x86\xe6\x9c\xba'
p2786
sssa(dp2787
S'10.10.21.49'
p2788
(dp2789
g5
S'20191128150032670091'
p2790
sg7
I0
sg8
(dp2791
S'pid'
p2792
I16991
sS'retcode'
p2793
I0
sS'stderr'
p2794
g13
sS'stdout'
p2795
S'10.10.21.49|46076|82168|64.07%|32|14.293|80615|53988.3|66.97%|\xe7\x89\xa9\xe7\x90\x86\xe6\x9c\xba'
p2796
sssa(dp2797
S'192.168.2.69'
p2798
(dp2799
g5
S'20191128150032670091'
p2800
sg7
I0
sg8
(dp2801
S'pid'
p2802
I2902
sS'retcode'
p2803
I0
sS'stderr'
p2804
g13
sS'stdout'
p2805
S'192.168.2.69|48251|1860|3.85%|16|0.263|16000.4|6801.5|42.51%|\xe7\x89\xa9\xe7\x90\x86\xe6\x9c\xba'
p2806
sssa.