(lp0
(lp1
(dp2
S'cnbjsjqpvfszldb01'
p3
(dp4
S'failed'
p5
I01
ssaa(dp6
S'10.10.6.62'
p7
(dp8
S'jid'
p9
S'20191128150057815550'
p10
sS'retcode'
p11
I0
sS'ret'
p12
(dp13
S'pid'
p14
I25077
sS'retcode'
p15
I0
sS'stderr'
p16
S'awk: fatal: division by zero attempted\n/tmp/tmpaELj7z.sh: line 46: dmidecode: command not found'
p17
sS'stdout'
p18
S'10.10.6.62|7872|3964|50.36%|4||107.4|9.7|9.03%|\xe7\x89\xa9\xe7\x90\x86\xe6\x9c\xba'
p19
sssa(dp20
S'10.10.1.41'
p21
(dp22
g9
S'20191128150057815550'
p23
sg11
I0
sg12
(dp24
S'pid'
p25
I4568
sS'retcode'
p26
I0
sS'stderr'
p27
S''
p28
sS'stdout'
p29
S'10.10.1.41|31987|1354|4.23%|20|0.120|6600.8|4415.6|66.89%|\xe7\x89\xa9\xe7\x90\x86\xe6\x9c\xba'
p30
sssa(dp31
S'10.10.11.62'
p32
(dp33
g9
S'20191128150057815550'
p34
sg11
I0
sg12
(dp35
S'pid'
p36
I23098
sS'retcode'
p37
I0
sS'stderr'
p38
g28
sS'stdout'
p39
S'10.10.11.62|27781|36070|56.49%|16|0.588|1559.2|42.4|2.72%|\xe7\x89\xa9\xe7\x90\x86\xe6\x9c\xba'
p40
sssa(dp41
S'10.10.6.64'
p42
(dp43
g9
S'20191128150057815550'
p44
sg11
I0
sg12
(dp45
S'pid'
p46
I16565
sS'retcode'
p47
I0
sS'stderr'
p48
S'awk: fatal: division by zero attempted\n/tmp/tmp47tao_.sh: line 46: dmidecode: command not found'
p49
sS'stdout'
p50
S'10.10.6.64|15951|252|1.58%|4||107.4|2.1|1.96%|\xe7\x89\xa9\xe7\x90\x86\xe6\x9c\xba'
p51
sssa(dp52
S'10.10.11.64'
p53
(dp54
g9
S'20191128150057815550'
p55
sg11
I0
sg12
(dp56
S'pid'
p57
I7158
sS'retcode'
p58
I0
sS'stderr'
p59
g28
sS'stdout'
p60
S'10.10.11.64|60751|3101|4.86%|16|0.272|1559.2|184.1|11.81%|\xe7\x89\xa9\xe7\x90\x86\xe6\x9c\xba'
p61
sssa(dp62
S'10.10.11.61'
p63
(dp64
g9
S'20191128150057815550'
p65
sg11
I0
sg12
(dp66
S'pid'
p67
I20703
sS'retcode'
p68
I0
sS'stderr'
p69
g28
sS'stdout'
p70
S'10.10.11.61|27300|36551|57.24%|16|0.241|1559.2|46.6|2.99%|\xe7\x89\xa9\xe7\x90\x86\xe6\x9c\xba'
p71
sssa(dp72
S'10.10.11.63'
p73
(dp74
g9
S'20191128150057815550'
p75
sg11
I0
sg12
(dp76
S'pid'
p77
I591
sS'retcode'
p78
I0
sS'stderr'
p79
g28
sS'stdout'
p80
S'10.10.11.63|29883|33968|53.20%|16|0.213|1559.2|44.8|2.87%|\xe7\x89\xa9\xe7\x90\x86\xe6\x9c\xba'
p81
sssa(dp82
S'10.10.6.5'
p83
(dp84
g9
S'20191128150057815550'
p85
sg11
I0
sg12
(dp86
S'pid'
p87
I21639
sS'retcode'
p88
I0
sS'stderr'
p89
S'awk: fatal: division by zero attempted'
p90
sS'stdout'
p91
S'10.10.6.5|15951|4391|27.53%|4||107.4|8.9|8.29%|\xe8\x99\x9a\xe6\x8b\x9f\xe6\x9c\xba'
p92
sssa(dp93
S'10.10.11.35'
p94
(dp95
g9
S'20191128150057815550'
p96
sg11
I0
sg12
(dp97
S'pid'
p98
I19413
sS'retcode'
p99
I0
sS'stderr'
p100
g28
sS'stdout'
p101
S'10.10.11.35|128640|24272|18.87%|32|7.013|2396|10.7|0.45%|\xe7\x89\xa9\xe7\x90\x86\xe6\x9c\xba'
p102
sssa(dp103
S'10.10.6.63'
p104
(dp105
g9
S'20191128150057815550'
p106
sg11
I0
sg12
(dp107
S'pid'
p108
I28451
sS'retcode'
p109
I0
sS'stderr'
p110
S'awk: fatal: division by zero attempted\n/tmp/tmpVAzNMs.sh: line 46: dmidecode: command not found'
p111
sS'stdout'
p112
S'10.10.6.63|15951|2036|12.76%|4||107.4|10.8|10.06%|\xe7\x89\xa9\xe7\x90\x86\xe6\x9c\xba'
p113
sssa(dp114
S'10.10.11.36'
p115
(dp116
g9
S'20191128150057815550'
p117
sg11
I0
sg12
(dp118
S'pid'
p119
I38130
sS'retcode'
p120
I0
sS'stderr'
p121
g28
sS'stdout'
p122
S'10.10.11.36|128640|24296|18.89%|32|7.805|2396|7.9|0.33%|\xe7\x89\xa9\xe7\x90\x86\xe6\x9c\xba'
p123
sssa(dp124
S'cnbjsjqpsgjdn40'
p125
(dp126
g9
S'20191128150057815550'
p127
sg11
I0
sg12
(dp128
S'pid'
p129
I12128
sS'retcode'
p130
I0
sS'stderr'
p131
g28
sS'stdout'
p132
S'10.10.11.141|128363|49590|38.63%|48|2.105|80615|49923.1|61.93%|\xe7\x89\xa9\xe7\x90\x86\xe6\x9c\xba'
p133
sssa(dp134
S'10.10.11.218'
p135
(dp136
g9
S'20191128150057815550'
p137
sg11
I0
sg12
(dp138
S'pid'
p139
I35856
sS'retcode'
p140
I0
sS'stderr'
p141
g28
sS'stdout'
p142
S'10.10.11.218|128777|3008|2.34%|32|0.002|2396|13.1|0.55%|\xe7\x89\xa9\xe7\x90\x86\xe6\x9c\xba'
p143
sssa(dp144
S'10.10.11.219'
p145
(dp146
g9
S'20191128150057815550'
p147
sg11
I0
sg12
(dp148
S'pid'
p149
I4076
sS'retcode'
p150
I0
sS'stderr'
p151
g28
sS'stdout'
p152
S'10.10.11.219|257912|29809|11.56%|32|0.293|80615|485.9|0.60%|\xe7\x89\xa9\xe7\x90\x86\xe6\x9c\xba'
p153
sssa(dp154
S'cnbjsjqpvgjweb02'
p155
(dp156
g9
S'20191128150057815550'
p157
sg11
I0
sg12
(dp158
S'pid'
p159
I5363
sS'retcode'
p160
I0
sS'stderr'
p161
g28
sS'stdout'
p162
S'10.10.6.12|19990|9412|47.09%|10|0.109|107.4|59.4|55.31%|\xe8\x99\x9a\xe6\x8b\x9f\xe6\x9c\xba'
p163
sssa(dp164
S'10.10.11.96'
p165
(dp166
g9
S'20191128150057815550'
p167
sg11
I0
sg12
(dp168
S'pid'
p169
I47403
sS'retcode'
p170
I0
sS'stderr'
p171
g28
sS'stdout'
p172
S'10.10.11.96|192153|48068|25.01%|32|8.351|20603|275.8|1.34%|\xe7\x89\xa9\xe7\x90\x86\xe6\x9c\xba'
p173
sssa(dp174
S'10.10.11.212'
p175
(dp176
g9
S'20191128150057815550'
p177
sg11
I0
sg12
(dp178
S'pid'
p179
I21166
sS'retcode'
p180
I0
sS'stderr'
p181
g28
sS'stdout'
p182
S'10.10.11.212|96464|89994|93.29%|40|0.606|3597.3|1694.0|47.09%|\xe7\x89\xa9\xe7\x90\x86\xe6\x9c\xba'
p183
sssa(dp184
S'10.10.11.217'
p185
(dp186
g9
S'20191128150057815550'
p187
sg11
I0
sg12
(dp188
S'pid'
p189
I36999
sS'retcode'
p190
I0
sS'stderr'
p191
g28
sS'stdout'
p192
S'10.10.11.217|128777|3290|2.55%|32|0.019|2396|12.3|0.51%|\xe7\x89\xa9\xe7\x90\x86\xe6\x9c\xba'
p193
sssa(dp194
S'10.10.11.227'
p195
(dp196
g9
S'20191128150057815550'
p197
sg11
I0
sg12
(dp198
S'pid'
p199
I2953
sS'retcode'
p200
I0
sS'stderr'
p201
g28
sS'stdout'
p202
S'10.10.11.227|128527|69777|54.29%|32|2.244|80615|48943.1|60.71%|\xe7\x89\xa9\xe7\x90\x86\xe6\x9c\xba'
p203
sssa(dp204
S'10.10.7.10'
p205
(dp206
g9
S'20191128150057815550'
p207
sg11
I0
sg12
(dp208
S'pid'
p209
I16827
sS'retcode'
p210
I0
sS'stderr'
p211
S'/tmp/__salt.tmp.QMlHim.sh: line 46: dmidecode: command not found'
p212
sS'stdout'
p213
S'10.10.7.10|7872|814|10.34%|4|0.001|107.4|3.9|3.63%|\xe7\x89\xa9\xe7\x90\x86\xe6\x9c\xba'
p214
sssa(dp215
S'10.10.11.17'
p216
(dp217
g9
S'20191128150057815550'
p218
sg11
I0
sg12
(dp219
S'pid'
p220
I32797
sS'retcode'
p221
I0
sS'stderr'
p222
g28
sS'stdout'
p223
S'10.10.11.17|128640|3580|2.78%|32|0.007|2396|5.0|0.21%|\xe7\x89\xa9\xe7\x90\x86\xe6\x9c\xba'
p224
sssa(dp225
S'10.10.6.65'
p226
(dp227
g9
S'20191128150057815550'
p228
sg11
I0
sg12
(dp229
S'pid'
p230
I16000
sS'retcode'
p231
I0
sS'stderr'
p232
S'/tmp/tmpTX0aWI.sh: line 46: dmidecode: command not found'
p233
sS'stdout'
p234
S'10.10.6.65|7872|508|6.45%|4|0.008|107.4|15.2|14.15%|\xe7\x89\xa9\xe7\x90\x86\xe6\x9c\xba'
p235
sssa(dp236
S'10.10.11.16'
p237
(dp238
g9
S'20191128150057815550'
p239
sg11
I0
sg12
(dp240
S'pid'
p241
I57076
sS'retcode'
p242
I0
sS'stderr'
p243
g28
sS'stdout'
p244
S'10.10.11.16|128640|1629|1.27%|32|0.004|2396|11.9|0.50%|\xe7\x89\xa9\xe7\x90\x86\xe6\x9c\xba'
p245
sssa(dp246
S'10.10.11.216'
p247
(dp248
g9
S'20191128150057815550'
p249
sg11
I0
sg12
(dp250
S'pid'
p251
I56905
sS'retcode'
p252
I0
sS'stderr'
p253
g28
sS'stdout'
p254
S'10.10.11.216|128777|3162|2.45%|32|0.015|2396|16.1|0.67%|\xe7\x89\xa9\xe7\x90\x86\xe6\x9c\xba'
p255
sssa(dp256
S'cnbjsjqpvdcsyweb03'
p257
(dp258
g9
S'20191128150057815550'
p259
sg11
I0
sg12
(dp260
S'pid'
p261
I28397
sS'retcode'
p262
I0
sS'stderr'
p263
g28
sS'stdout'
p264
S'10.10.6.59|11912|665|5.58%|4|0.003|107.4|4.6|4.28%|\xe8\x99\x9a\xe6\x8b\x9f\xe6\x9c\xba'
p265
sssa(dp266
S'10.10.11.95'
p267
(dp268
g9
S'20191128150057815550'
p269
sg11
I0
sg12
(dp270
S'pid'
p271
I1694
sS'retcode'
p272
I0
sS'stderr'
p273
g28
sS'stdout'
p274
S'10.10.11.95|192153|49010|25.51%|32|8.626|20603|296.0|1.44%|\xe7\x89\xa9\xe7\x90\x86\xe6\x9c\xba'
p275
sssa(dp276
S'10.10.11.92'
p277
(dp278
g9
S'20191128150057815550'
p279
sg11
I0
sg12
(dp280
S'pid'
p281
I27130
sS'retcode'
p282
I0
sS'stderr'
p283
g28
sS'stdout'
p284
S'10.10.11.92|192153|49468|25.74%|32|8.567|20603|930.8|4.52%|\xe7\x89\xa9\xe7\x90\x86\xe6\x9c\xba'
p285
sssa(dp286
S'cnbjsjqpsgjdn65'
p287
(dp288
g9
S'20191128150057815550'
p289
sg11
I0
sg12
(dp290
S'pid'
p291
I10746
sS'retcode'
p292
I0
sS'stderr'
p293
g28
sS'stdout'
p294
S'10.10.11.166|128363|67204|52.35%|48|2.195|80615|50420.1|62.54%|\xe7\x89\xa9\xe7\x90\x86\xe6\x9c\xba'
p295
sssa(dp296
S'cnbjsjqpsgjdn50'
p297
(dp298
g9
S'20191128150057815550'
p299
sg11
I0
sg12
(dp300
S'pid'
p301
I47650
sS'retcode'
p302
I0
sS'stderr'
p303
g28
sS'stdout'
p304
S'10.10.11.151|128363|51144|39.84%|48|2.368|80615|50613.0|62.78%|\xe7\x89\xa9\xe7\x90\x86\xe6\x9c\xba'
p305
sssa(dp306
S'cnbjsjqpsgjdn15'
p307
(dp308
g9
S'20191128150057815550'
p309
sg11
I0
sg12
(dp310
S'pid'
p311
I24359
sS'retcode'
p312
I0
sS'stderr'
p313
g28
sS'stdout'
p314
S'10.10.11.116|128363|52141|40.62%|48|2.176|80615|49064.7|60.86%|\xe7\x89\xa9\xe7\x90\x86\xe6\x9c\xba'
p315
sssa(dp316
S'10.10.11.91'
p317
(dp318
g9
S'20191128150057815550'
p319
sg11
I0
sg12
(dp320
S'pid'
p321
I31238
sS'retcode'
p322
I0
sS'stderr'
p323
g28
sS'stdout'
p324
S'10.10.11.91|192153|46188|24.04%|32|8.618|20603|1038.1|5.04%|\xe7\x89\xa9\xe7\x90\x86\xe6\x9c\xba'
p325
sssa(dp326
S'10.10.11.213'
p327
(dp328
g9
S'20191128150057815550'
p329
sg11
I0
sg12
(dp330
S'pid'
p331
I9720
sS'retcode'
p332
I0
sS'stderr'
p333
g28
sS'stdout'
p334
S'10.10.11.213|31986|1326|4.15%|32|0.002|31205.7|7408.3|23.74%|\xe7\x89\xa9\xe7\x90\x86\xe6\x9c\xba'
p335
sssa(dp336
S'10.10.11.98'
p337
(dp338
g9
S'20191128150057815550'
p339
sg11
I0
sg12
(dp340
S'pid'
p341
I23024
sS'retcode'
p342
I0
sS'stderr'
p343
g28
sS'stdout'
p344
S'10.10.11.98|192153|47680|24.81%|32|8.651|20603|307.0|1.49%|\xe7\x89\xa9\xe7\x90\x86\xe6\x9c\xba'
p345
sssa(dp346
S'cnbjsjqpsgjdn64'
p347
(dp348
g9
S'20191128150057815550'
p349
sg11
I0
sg12
(dp350
S'pid'
p351
I42529
sS'retcode'
p352
I0
sS'stderr'
p353
g28
sS'stdout'
p354
S'10.10.11.165|128363|68497|53.36%|48|2.297|80615|51539.8|63.93%|\xe7\x89\xa9\xe7\x90\x86\xe6\x9c\xba'
p355
sssa(dp356
S'cnbjsjqpsgjdn24'
p357
(dp358
g9
S'20191128150057815550'
p359
sg11
I0
sg12
(dp360
S'pid'
p361
I1093
sS'retcode'
p362
I0
sS'stderr'
p363
g28
sS'stdout'
p364
S'10.10.11.125|128363|72068|56.14%|48|3.821|80615|50444.3|62.57%|\xe7\x89\xa9\xe7\x90\x86\xe6\x9c\xba'
p365
sssa(dp366
S'10.10.11.226'
p367
(dp368
g9
S'20191128150057815550'
p369
sg11
I0
sg12
(dp370
S'pid'
p371
I31215
sS'retcode'
p372
I0
sS'stderr'
p373
g28
sS'stdout'
p374
S'10.10.11.226|128527|72634|56.51%|32|2.956|80615|47943.2|59.47%|\xe7\x89\xa9\xe7\x90\x86\xe6\x9c\xba'
p375
sssa(dp376
S'cnbjsjqpsgjservice02'
p377
(dp378
g9
S'20191128150057815550'
p379
sg11
I0
sg12
(dp380
S'pid'
p381
I4731
sS'retcode'
p382
I0
sS'stderr'
p383
g28
sS'stdout'
p384
S'10.10.11.2|128621|78023|60.66%|32|1.428|2396|508.5|21.22%|\xe7\x89\xa9\xe7\x90\x86\xe6\x9c\xba'
p385
sssa(dp386
S'cnbjsjqpsgjdn87'
p387
(dp388
g9
S'20191128150057815550'
p389
sg11
I0
sg12
(dp390
S'pid'
p391
I7733
sS'retcode'
p392
I0
sS'stderr'
p393
g28
sS'stdout'
p394
S'10.10.11.188|128363|47836|37.27%|48|3.235|80615|46928.0|58.21%|\xe7\x89\xa9\xe7\x90\x86\xe6\x9c\xba'
p395
sssa(dp396
S'cnbjsjqpsgjdn25'
p397
(dp398
g9
S'20191128150057815550'
p399
sg11
I0
sg12
(dp400
S'pid'
p401
I19323
sS'retcode'
p402
I0
sS'stderr'
p403
g28
sS'stdout'
p404
S'10.10.11.126|128363|52764|41.11%|48|3.141|80615|50937.1|63.19%|\xe7\x89\xa9\xe7\x90\x86\xe6\x9c\xba'
p405
sssa(dp406
S'cnbjsjqpsgjredis02'
p407
(dp408
g9
S'20191128150057815550'
p409
sg11
I0
sg12
(dp410
S'pid'
p411
I19343
sS'retcode'
p412
I0
sS'stderr'
p413
g28
sS'stdout'
p414
S'10.10.11.31|128619|30269|23.53%|48|1.262|2396|128.7|5.37%|\xe7\x89\xa9\xe7\x90\x86\xe6\x9c\xba'
p415
sssa(dp416
S'cnbjsjqpsgjdn43'
p417
(dp418
g9
S'20191128150057815550'
p419
sg11
I0
sg12
(dp420
S'pid'
p421
I17671
sS'retcode'
p422
I0
sS'stderr'
p423
g28
sS'stdout'
p424
S'10.10.11.144|128363|55350|43.12%|48|2.350|80615|50730.5|62.93%|\xe7\x89\xa9\xe7\x90\x86\xe6\x9c\xba'
p425
sssa(dp426
S'10.10.11.93'
p427
(dp428
g9
S'20191128150057815550'
p429
sg11
I0
sg12
(dp430
S'pid'
p431
I46176
sS'retcode'
p432
I0
sS'stderr'
p433
g28
sS'stdout'
p434
S'10.10.11.93|192153|45724|23.80%|32|8.432|20603|296.6|1.44%|\xe7\x89\xa9\xe7\x90\x86\xe6\x9c\xba'
p435
sssa(dp436
S'10.10.11.187'
p437
(dp438
g9
S'20191128150057815550'
p439
sg11
I0
sg12
(dp440
S'pid'
p441
I44577
sS'retcode'
p442
I0
sS'stderr'
p443
g28
sS'stdout'
p444
S'10.10.11.187|128098|5052|3.94%|48|0.199|80615|11675.1|14.48%|\xe7\x89\xa9\xe7\x90\x86\xe6\x9c\xba'
p445
sssa(dp446
S'cnbjsjqpvjclvs02'
p447
(dp448
g9
S'20191128150057815550'
p449
sg11
I0
sg12
(dp450
S'pid'
p451
I16367
sS'retcode'
p452
I0
sS'stderr'
p453
g28
sS'stdout'
p454
S'10.10.6.24|3832|183|4.78%|4|0.001|107.4|3.0|2.79%|\xe8\x99\x9a\xe6\x8b\x9f\xe6\x9c\xba'
p455
sssa(dp456
S'cnbjsjqpsgjdn10'
p457
(dp458
g9
S'20191128150057815550'
p459
sg11
I0
sg12
(dp460
S'pid'
p461
I19954
sS'retcode'
p462
I0
sS'stderr'
p463
g28
sS'stdout'
p464
S'10.10.11.111|128363|53409|41.61%|48|3.632|80615|50726.5|62.92%|\xe7\x89\xa9\xe7\x90\x86\xe6\x9c\xba'
p465
sssa(dp466
S'cnbjsjqpsgjdn51'
p467
(dp468
g9
S'20191128150057815550'
p469
sg11
I0
sg12
(dp470
S'pid'
p471
I1973
sS'retcode'
p472
I0
sS'stderr'
p473
g28
sS'stdout'
p474
S'10.10.11.152|128363|50628|39.44%|48|2.058|80615|50017.7|62.05%|\xe7\x89\xa9\xe7\x90\x86\xe6\x9c\xba'
p475
sssa(dp476
S'cnbjsjqpsgjredis04'
p477
(dp478
g9
S'20191128150057815550'
p479
sg11
I0
sg12
(dp480
S'pid'
p481
I10188
sS'retcode'
p482
I0
sS'stderr'
p483
g28
sS'stdout'
p484
S'10.10.11.33|128619|37733|29.34%|48|1.532|2396|30.7|1.28%|\xe7\x89\xa9\xe7\x90\x86\xe6\x9c\xba'
p485
sssa(dp486
S'cnbjsjqpsgjdn04'
p487
(dp488
g9
S'20191128150057815550'
p489
sg11
I0
sg12
(dp490
S'pid'
p491
I15337
sS'retcode'
p492
I0
sS'stderr'
p493
g28
sS'stdout'
p494
S'10.10.11.105|128363|52251|40.71%|48|2.606|80615|50999.4|63.26%|\xe7\x89\xa9\xe7\x90\x86\xe6\x9c\xba'
p495
sssa(dp496
S'10.10.11.94'
p497
(dp498
g9
S'20191128150057815550'
p499
sg11
I0
sg12
(dp500
S'pid'
p501
I57076
sS'retcode'
p502
I0
sS'stderr'
p503
g28
sS'stdout'
p504
S'10.10.11.94|192153|46859|24.39%|32|8.375|20603|299.3|1.45%|\xe7\x89\xa9\xe7\x90\x86\xe6\x9c\xba'
p505
sssa(dp506
S'cnbjsjqpsgjdn55'
p507
(dp508
g9
S'20191128150057815550'
p509
sg11
I0
sg12
(dp510
S'pid'
p511
I31109
sS'retcode'
p512
I0
sS'stderr'
p513
g28
sS'stdout'
p514
S'10.10.11.156|128363|68399|53.28%|48|1.782|80615|48883.7|60.64%|\xe7\x89\xa9\xe7\x90\x86\xe6\x9c\xba'
p515
sssa(dp516
S'10.10.11.99'
p517
(dp518
g9
S'20191128150057815550'
p519
sg11
I0
sg12
(dp520
S'pid'
p521
I26742
sS'retcode'
p522
I0
sS'stderr'
p523
g28
sS'stdout'
p524
S'10.10.11.99|192153|45535|23.70%|32|8.535|20603|314.6|1.53%|\xe7\x89\xa9\xe7\x90\x86\xe6\x9c\xba'
p525
sssa(dp526
S'cnbjsjqpsgjservice03'
p527
(dp528
g9
S'20191128150057815550'
p529
sg11
I0
sg12
(dp530
S'pid'
p531
I20083
sS'retcode'
p532
I0
sS'stderr'
p533
g28
sS'stdout'
p534
S'10.10.11.3|128621|77891|60.56%|32|1.523|2396|549.3|22.93%|\xe7\x89\xa9\xe7\x90\x86\xe6\x9c\xba'
p535
sssa(dp536
S'cnbjsjqpvglzabbix01'
p537
(dp538
g9
S'20191128150057815550'
p539
sg11
I0
sg12
(dp540
S'pid'
p541
I12251
sS'retcode'
p542
I0
sS'stderr'
p543
g28
sS'stdout'
p544
S'10.10.7.2|7872|1645|20.90%|4|0.014|107.4|11.0|10.24%|\xe8\x99\x9a\xe6\x8b\x9f\xe6\x9c\xba'
p545
sssa(dp546
S'cnbjsjqpsgjdn26'
p547
(dp548
g9
S'20191128150057815550'
p549
sg11
I0
sg12
(dp550
S'pid'
p551
I15137
sS'retcode'
p552
I0
sS'stderr'
p553
g28
sS'stdout'
p554
S'10.10.11.127|128363|70304|54.77%|48|3.900|80615|50886.2|63.12%|\xe7\x89\xa9\xe7\x90\x86\xe6\x9c\xba'
p555
sssa(dp556
S'cnbjsjqpsgjredis01'
p557
(dp558
g9
S'20191128150057815550'
p559
sg11
I0
sg12
(dp560
S'pid'
p561
I23975
sS'retcode'
p562
I0
sS'stderr'
p563
g28
sS'stdout'
p564
S'10.10.11.30|128619|33952|26.40%|48|1.791|2396|54.3|2.27%|\xe7\x89\xa9\xe7\x90\x86\xe6\x9c\xba'
p565
sssa(dp566
S'cnbjsjqpsgjngx02'
p567
(dp568
g9
S'20191128150057815550'
p569
sg11
I0
sg12
(dp570
S'pid'
p571
I19876
sS'retcode'
p572
I0
sS'stderr'
p573
g28
sS'stdout'
p574
S'10.10.1.18|31667|1595|5.03%|32|0.006|1198|2.0|0.17%|\xe7\x89\xa9\xe7\x90\x86\xe6\x9c\xba'
p575
sssa(dp576
S'cnbjsjqpvgjweb01'
p577
(dp578
g9
S'20191128150057815550'
p579
sg11
I0
sg12
(dp580
S'pid'
p581
I25850
sS'retcode'
p582
I0
sS'stderr'
p583
g28
sS'stdout'
p584
S'10.10.6.11|11911|9865|82.81%|10|0.008|107.4|25.5|23.74%|\xe8\x99\x9a\xe6\x8b\x9f\xe6\x9c\xba'
p585
sssa(dp586
S'10.10.11.224'
p587
(dp588
g9
S'20191128150057815550'
p589
sg11
I0
sg12
(dp590
S'pid'
p591
I18853
sS'retcode'
p592
I0
sS'stderr'
p593
g28
sS'stdout'
p594
S'10.10.11.224|128527|55035|42.82%|32|2.667|80615|48483.0|60.14%|\xe7\x89\xa9\xe7\x90\x86\xe6\x9c\xba'
p595
sssa(dp596
S'cnbjsjqpsgjservice14'
p597
(dp598
g9
S'20191128150057815550'
p599
sg11
I0
sg12
(dp600
S'pid'
p601
I32418
sS'retcode'
p602
I0
sS'stderr'
p603
g28
sS'stdout'
p604
S'10.10.11.14|128621|56274|43.75%|32|1.193|2396|448.1|18.70%|\xe7\x89\xa9\xe7\x90\x86\xe6\x9c\xba'
p605
sssa(dp606
S'10.10.6.66'
p607
(dp608
g9
S'20191128150057815550'
p609
sg11
I0
sg12
(dp610
S'pid'
p611
I27744
sS'retcode'
p612
I0
sS'stderr'
p613
g28
sS'stdout'
p614
S'10.10.6.66|7871|772|9.81%|8|0.004|107.4|6.4|5.96%|\xe8\x99\x9a\xe6\x8b\x9f\xe6\x9c\xba'
p615
sssa(dp616
S'cnbjsjqpsgjngx01'
p617
(dp618
g9
S'20191128150057815550'
p619
sg11
I0
sg12
(dp620
S'pid'
p621
I12139
sS'retcode'
p622
I0
sS'stderr'
p623
g28
sS'stdout'
p624
S'10.10.1.17|31667|1177|3.72%|32|0.016|1198|73.8|6.16%|\xe7\x89\xa9\xe7\x90\x86\xe6\x9c\xba'
p625
sssa(dp626
S'cnbjsjqpsgjservice12'
p627
(dp628
g9
S'20191128150057815550'
p629
sg11
I0
sg12
(dp630
S'pid'
p631
I13572
sS'retcode'
p632
I0
sS'stderr'
p633
g28
sS'stdout'
p634
S'10.10.11.12|63985|35480|55.45%|32|2.485|2396|21.7|0.91%|\xe7\x89\xa9\xe7\x90\x86\xe6\x9c\xba'
p635
sssa(dp636
S'cnbjsjqpsgjservice06'
p637
(dp638
g9
S'20191128150057815550'
p639
sg11
I0
sg12
(dp640
S'pid'
p641
I19863
sS'retcode'
p642
I0
sS'stderr'
p643
g28
sS'stdout'
p644
S'10.10.11.6|128621|66461|51.67%|32|0.418|2396|424.6|17.72%|\xe7\x89\xa9\xe7\x90\x86\xe6\x9c\xba'
p645
sssa(dp646
S'cnbjsjqpsgjdn07'
p647
(dp648
g9
S'20191128150057815550'
p649
sg11
I0
sg12
(dp650
S'pid'
p651
I35179
sS'retcode'
p652
I0
sS'stderr'
p653
g28
sS'stdout'
p654
S'10.10.11.108|128363|54281|42.29%|48|1.753|80615|49457.7|61.35%|\xe7\x89\xa9\xe7\x90\x86\xe6\x9c\xba'
p655
sssa(dp656
S'cnbjsjqpsgjdn39'
p657
(dp658
g9
S'20191128150057815550'
p659
sg11
I0
sg12
(dp660
S'pid'
p661
I4083
sS'retcode'
p662
I0
sS'stderr'
p663
g28
sS'stdout'
p664
S'10.10.11.140|128363|71763|55.91%|48|2.906|80615|50604.8|62.77%|\xe7\x89\xa9\xe7\x90\x86\xe6\x9c\xba'
p665
sssa(dp666
S'10.10.11.75'
p667
(dp668
g9
S'20191128150057815550'
p669
sg11
I0
sg12
(dp670
S'pid'
p671
I14865
sS'retcode'
p672
I0
sS'stderr'
p673
g28
sS'stdout'
p674
S'10.10.11.75|64004|33335|52.08%|32|0.702|2396|224.8|9.38%|\xe7\x89\xa9\xe7\x90\x86\xe6\x9c\xba'
p675
sssa(dp676
S'cnbjsjqpsgjdn44'
p677
(dp678
g9
S'20191128150057815550'
p679
sg11
I0
sg12
(dp680
S'pid'
p681
I14070
sS'retcode'
p682
I0
sS'stderr'
p683
g28
sS'stdout'
p684
S'10.10.11.145|128363|52702|41.05%|48|1.549|80615|48914.9|60.68%|\xe7\x89\xa9\xe7\x90\x86\xe6\x9c\xba'
p685
sssa(dp686
S'cnbjsjqpsgjdb02'
p687
(dp688
g9
S'20191128150057815550'
p689
sg11
I0
sg12
(dp690
S'pid'
p691
I8251
sS'retcode'
p692
I0
sS'stderr'
p693
g28
sS'stdout'
p694
S'10.10.11.51|128619|9129|7.10%|48|1.765|59524|121.0|0.20%|\xe7\x89\xa9\xe7\x90\x86\xe6\x9c\xba'
p695
sssa(dp696
S'10.10.11.82'
p697
(dp698
g9
S'20191128150057815550'
p699
sg11
I0
sg12
(dp700
S'pid'
p701
I30079
sS'retcode'
p702
I0
sS'stderr'
p703
g28
sS'stdout'
p704
S'10.10.11.82|128640|8234|6.40%|32|1.126|1797|98.6|5.49%|\xe7\x89\xa9\xe7\x90\x86\xe6\x9c\xba'
p705
sssa(dp706
S'10.10.11.74'
p707
(dp708
g9
S'20191128150057815550'
p709
sg11
I0
sg12
(dp710
S'pid'
p711
I47694
sS'retcode'
p712
I0
sS'stderr'
p713
g28
sS'stdout'
p714
S'10.10.11.74|128640|75952|59.04%|32|1.168|2396|182.4|7.61%|\xe7\x89\xa9\xe7\x90\x86\xe6\x9c\xba'
p715
sssa(dp716
S'cnbjsjqpsgjdn62'
p717
(dp718
g9
S'20191128150057815550'
p719
sg11
I0
sg12
(dp720
S'pid'
p721
I48247
sS'retcode'
p722
I0
sS'stderr'
p723
g28
sS'stdout'
p724
S'10.10.11.163|128363|61125|47.62%|48|1.807|80615|49688.6|61.64%|\xe7\x89\xa9\xe7\x90\x86\xe6\x9c\xba'
p725
sssa(dp726
S'cnbjsjqpsgjlvs02'
p727
(dp728
g9
S'20191128150057815550'
p729
sg11
I0
sg12
(dp730
S'pid'
p731
I31293
sS'retcode'
p732
I0
sS'stderr'
p733
g28
sS'stdout'
p734
S'10.10.1.16|31667|1051|3.32%|32|0.062|1198|1.9|0.16%|\xe7\x89\xa9\xe7\x90\x86\xe6\x9c\xba'
p735
sssa(dp736
S'10.10.11.73'
p737
(dp738
g9
S'20191128150057815550'
p739
sg11
I0
sg12
(dp740
S'pid'
p741
I54898
sS'retcode'
p742
I0
sS'stderr'
p743
g28
sS'stdout'
p744
S'10.10.11.73|128640|70344|54.68%|32|1.345|2396|197.9|8.26%|\xe7\x89\xa9\xe7\x90\x86\xe6\x9c\xba'
p745
sssa(dp746
S'10.10.11.185'
p747
(dp748
g9
S'20191128150057815550'
p749
sg11
I0
sg12
(dp750
S'pid'
p751
I22809
sS'retcode'
p752
I0
sS'stderr'
p753
g28
sS'stdout'
p754
S'10.10.11.185|128098|33194|25.91%|48|0.193|80615|4185.1|5.19%|\xe7\x89\xa9\xe7\x90\x86\xe6\x9c\xba'
p755
sssa(dp756
S'cnbjsjqpsgjdn99'
p757
(dp758
g9
S'20191128150057815550'
p759
sg11
I0
sg12
(dp760
S'pid'
p761
I36799
sS'retcode'
p762
I0
sS'stderr'
p763
g28
sS'stdout'
p764
S'10.10.11.200|63727|3514|5.51%|48|0.062|92617.4|64981.1|70.16%|\xe7\x89\xa9\xe7\x90\x86\xe6\x9c\xba'
p765
sssa(dp766
S'cnbjsjqpsgjlvs01'
p767
(dp768
g9
S'20191128150057815550'
p769
sg11
I0
sg12
(dp770
S'pid'
p771
I2670
sS'retcode'
p772
I0
sS'stderr'
p773
g28
sS'stdout'
p774
S'10.10.1.15|31667|995|3.14%|32|0.062|1198|1.9|0.16%|\xe7\x89\xa9\xe7\x90\x86\xe6\x9c\xba'
p775
sssa(dp776
S'cnbjsjqpsgjkafka08'
p777
(dp778
g9
S'20191128150057815550'
p779
sg11
I0
sg12
(dp780
S'pid'
p781
I1221
sS'retcode'
p782
I0
sS'stderr'
p783
g28
sS'stdout'
p784
S'10.10.11.209|128621|61662|47.94%|32|1.421|2396|1077.5|44.97%|\xe7\x89\xa9\xe7\x90\x86\xe6\x9c\xba'
p785
sssa(dp786
S'10.10.11.71'
p787
(dp788
g9
S'20191128150057815550'
p789
sg11
I0
sg12
(dp790
S'pid'
p791
I34292
sS'retcode'
p792
I0
sS'stderr'
p793
g28
sS'stdout'
p794
S'10.10.11.71|128640|71981|55.96%|32|1.269|2396|205.0|8.56%|\xe7\x89\xa9\xe7\x90\x86\xe6\x9c\xba'
p795
sssa(dp796
S'10.10.11.72'
p797
(dp798
g9
S'20191128150057815550'
p799
sg11
I0
sg12
(dp800
S'pid'
p801
I5982
sS'retcode'
p802
I0
sS'stderr'
p803
g28
sS'stdout'
p804
S'10.10.11.72|128640|75298|58.53%|32|1.301|2396|180.4|7.53%|\xe7\x89\xa9\xe7\x90\x86\xe6\x9c\xba'
p805
sssa(dp806
S'10.10.1.31'
p807
(dp808
g9
S'20191128150057815550'
p809
sg11
I0
sg12
(dp810
S'pid'
p811
I14445
sS'retcode'
p812
I0
sS'stderr'
p813
S'/tmp/tmpql0WnW.sh: line 46: dmidecode: command not found'
p814
sS'stdout'
p815
S'10.10.1.31|7872|411|5.22%|4|0.000|17816.6|14556.5|81.70%|\xe7\x89\xa9\xe7\x90\x86\xe6\x9c\xba'
p816
sssa(dp817
S'cnbjsjqpsgjdn63'
p818
(dp819
g9
S'20191128150057815550'
p820
sg11
I0
sg12
(dp821
S'pid'
p822
I44229
sS'retcode'
p823
I0
sS'stderr'
p824
g28
sS'stdout'
p825
S'10.10.11.164|128363|53315|41.53%|48|3.122|80615|50552.2|62.71%|\xe7\x89\xa9\xe7\x90\x86\xe6\x9c\xba'
p826
sssa(dp827
S'cnbjsjqpsgjlbs01'
p828
(dp829
g9
S'20191128150057815550'
p830
sg11
I0
sg12
(dp831
S'pid'
p832
I29466
sS'retcode'
p833
I0
sS'stderr'
p834
g28
sS'stdout'
p835
S'10.10.1.1|31667|5692|17.97%|32|2.939|2396|1068.4|44.59%|\xe7\x89\xa9\xe7\x90\x86\xe6\x9c\xba'
p836
sssa(dp837
S'cnbjsjqpsgjservice05'
p838
(dp839
g9
S'20191128150057815550'
p840
sg11
I0
sg12
(dp841
S'pid'
p842
I1283
sS'retcode'
p843
I0
sS'stderr'
p844
g28
sS'stdout'
p845
S'10.10.11.5|128621|82300|63.99%|32|1.008|2396|763.5|31.87%|\xe7\x89\xa9\xe7\x90\x86\xe6\x9c\xba'
p846
sssa(dp847
S'10.10.11.80'
p848
(dp849
g9
S'20191128150057815550'
p850
sg11
I0
sg12
(dp851
S'pid'
p852
I27615
sS'retcode'
p853
I0
sS'stderr'
p854
g28
sS'stdout'
p855
S'10.10.11.80|128640|8921|6.93%|32|0.977|1797|102.2|5.69%|\xe7\x89\xa9\xe7\x90\x86\xe6\x9c\xba'
p856
sssa(dp857
S'cnbjsjqpsgjdn05'
p858
(dp859
g9
S'20191128150057815550'
p860
sg11
I0
sg12
(dp861
S'pid'
p862
I48383
sS'retcode'
p863
I0
sS'stderr'
p864
g28
sS'stdout'
p865
S'10.10.11.106|128363|93821|73.09%|48|3.549|80615|49058.3|60.86%|\xe7\x89\xa9\xe7\x90\x86\xe6\x9c\xba'
p866
sssa(dp867
S'cnbjsjqpsgjdn97'
p868
(dp869
g9
S'20191128150057815550'
p870
sg11
I0
sg12
(dp871
S'pid'
p872
I36140
sS'retcode'
p873
I0
sS'stderr'
p874
S"df: `/biyadi': Transport endpoint is not connected"
p875
sS'stdout'
p876
S'10.10.11.198|63727|3147|4.94%|48|0.102|80615|45564.8|56.52%|\xe7\x89\xa9\xe7\x90\x86\xe6\x9c\xba'
p877
sssa(dp878
S'cnbjsjqpsgjredis03'
p879
(dp880
g9
S'20191128150057815550'
p881
sg11
I0
sg12
(dp882
S'pid'
p883
I32638
sS'retcode'
p884
I0
sS'stderr'
p885
g28
sS'stdout'
p886
S'10.10.11.32|128619|32005|24.88%|48|1.800|2396|113.8|4.75%|\xe7\x89\xa9\xe7\x90\x86\xe6\x9c\xba'
p887
sssa(dp888
S'10.10.11.214'
p889
(dp890
g9
S'20191128150057815550'
p891
sg11
I0
sg12
(dp892
S'pid'
p893
I22805
sS'retcode'
p894
I0
sS'stderr'
p895
g28
sS'stdout'
p896
S'10.10.11.214|31986|1516|4.74%|32|0.009|36606.8|1522.3|4.16%|\xe7\x89\xa9\xe7\x90\x86\xe6\x9c\xba'
p897
sssa(dp898
S'10.10.11.76'
p899
(dp900
g9
S'20191128150057815550'
p901
sg11
I0
sg12
(dp902
S'pid'
p903
I20336
sS'retcode'
p904
I0
sS'stderr'
p905
g28
sS'stdout'
p906
S'10.10.11.76|64004|32944|51.47%|32|0.686|2396|203.1|8.48%|\xe7\x89\xa9\xe7\x90\x86\xe6\x9c\xba'
p907
sssa(dp908
S'10.10.11.97'
p909
(dp910
g9
S'20191128150057815550'
p911
sg11
I0
sg12
(dp912
S'pid'
p913
I34939
sS'retcode'
p914
I0
sS'stderr'
p915
g28
sS'stdout'
p916
S'10.10.11.97|192153|68884|35.85%|32|8.566|20603|300.8|1.46%|\xe7\x89\xa9\xe7\x90\x86\xe6\x9c\xba'
p917
sssa(dp918
S'cnbjsjqpvgljump01'
p919
(dp920
g9
S'20191128150057815550'
p921
sg11
I0
sg12
(dp922
S'pid'
p923
I21301
sS'retcode'
p924
I0
sS'stderr'
p925
g28
sS'stdout'
p926
S'10.10.7.1|15950|1285|8.05%|8|0.012|322.1|219.9|68.27%|\xe8\x99\x9a\xe6\x8b\x9f\xe6\x9c\xba'
p927
sssa(dp928
S'cnbjsjqpsgjdn68'
p929
(dp930
g9
S'20191128150057815550'
p931
sg11
I0
sg12
(dp932
S'pid'
p933
I48859
sS'retcode'
p934
I0
sS'stderr'
p935
g28
sS'stdout'
p936
S'10.10.11.169|128363|54704|42.62%|48|2.822|80615|48708.4|60.42%|\xe7\x89\xa9\xe7\x90\x86\xe6\x9c\xba'
p937
sssa(dp938
S'cnbjsjqpsgjdn13'
p939
(dp940
g9
S'20191128150057815550'
p941
sg11
I0
sg12
(dp942
S'pid'
p943
I26927
sS'retcode'
p944
I0
sS'stderr'
p945
g28
sS'stdout'
p946
S'10.10.11.114|128363|53741|41.87%|48|2.963|80615|50898.9|63.14%|\xe7\x89\xa9\xe7\x90\x86\xe6\x9c\xba'
p947
sssa(dp948
S'cnbjsjqpsgjdn23'
p949
(dp950
g9
S'20191128150057815550'
p951
sg11
I0
sg12
(dp952
S'pid'
p953
I5055
sS'retcode'
p954
I0
sS'stderr'
p955
g28
sS'stdout'
p956
S'10.10.11.124|128363|73735|57.44%|48|2.452|80615|50183.9|62.25%|\xe7\x89\xa9\xe7\x90\x86\xe6\x9c\xba'
p957
sssa(dp958
S'cnbjsjqpsgjservice11'
p959
(dp960
g9
S'20191128150057815550'
p961
sg11
I0
sg12
(dp962
S'pid'
p963
I8573
sS'retcode'
p964
I0
sS'stderr'
p965
g28
sS'stdout'
p966
S'10.10.11.11|63985|37479|58.57%|32|2.456|2396|21.4|0.89%|\xe7\x89\xa9\xe7\x90\x86\xe6\x9c\xba'
p967
sssa(dp968
S'cnbjsjqpsgjdn89'
p969
(dp970
g9
S'20191128150057815550'
p971
sg11
I0
sg12
(dp972
S'pid'
p973
I47723
sS'retcode'
p974
I0
sS'stderr'
p975
g28
sS'stdout'
p976
S'10.10.11.190|128363|74907|58.36%|48|3.465|80615|48759.5|60.48%|\xe7\x89\xa9\xe7\x90\x86\xe6\x9c\xba'
p977
sssa(dp978
S'cnbjsjqpvglsalt01'
p979
(dp980
g9
S'20191128150057815550'
p981
sg11
I0
sg12
(dp982
S'pid'
p983
I18464
sS'retcode'
p984
I0
sS'stderr'
p985
g28
sS'stdout'
p986
S'10.10.7.6|7872|2133|27.10%|4|0.004|107.4|9.9|9.22%|\xe8\x99\x9a\xe6\x8b\x9f\xe6\x9c\xba'
p987
sssa(dp988
S'cnbjsjqpsgjdn52'
p989
(dp990
g9
S'20191128150057815550'
p991
sg11
I0
sg12
(dp992
S'pid'
p993
I22378
sS'retcode'
p994
I0
sS'stderr'
p995
g28
sS'stdout'
p996
S'10.10.11.153|128363|51491|40.11%|48|1.781|80615|48692.5|60.40%|\xe7\x89\xa9\xe7\x90\x86\xe6\x9c\xba'
p997
sssa(dp998
S'cnbjsjqpsgjdn42'
p999
(dp1000
g9
S'20191128150057815550'
p1001
sg11
I0
sg12
(dp1002
S'pid'
p1003
I28986
sS'retcode'
p1004
I0
sS'stderr'
p1005
g28
sS'stdout'
p1006
S'10.10.11.143|128363|53210|41.45%|48|3.583|80615|50261.7|62.35%|\xe7\x89\xa9\xe7\x90\x86\xe6\x9c\xba'
p1007
sssa(dp1008
S'cnbjsjqpsgjdb03'
p1009
(dp1010
g9
S'20191128150057815550'
p1011
sg11
I0
sg12
(dp1012
S'pid'
p1013
I16730
sS'retcode'
p1014
I0
sS'stderr'
p1015
g28
sS'stdout'
p1016
S'10.10.11.52|128619|14933|11.61%|48|3.395|5038|2079.1|41.27%|\xe7\x89\xa9\xe7\x90\x86\xe6\x9c\xba'
p1017
sssa(dp1018
S'cnbjsjqpsgjdn34'
p1019
(dp1020
g9
S'20191128150057815550'
p1021
sg11
I0
sg12
(dp1022
S'pid'
p1023
I40763
sS'retcode'
p1024
I0
sS'stderr'
p1025
g28
sS'stdout'
p1026
S'10.10.11.135|128363|71700|55.86%|48|2.752|80615|51135.8|63.43%|\xe7\x89\xa9\xe7\x90\x86\xe6\x9c\xba'
p1027
sssa(dp1028
S'cnbjsjqpsgjservice10'
p1029
(dp1030
g9
S'20191128150057815550'
p1031
sg11
I0
sg12
(dp1032
S'pid'
p1033
I20306
sS'retcode'
p1034
I0
sS'stderr'
p1035
g28
sS'stdout'
p1036
S'10.10.11.10|63985|38394|60.01%|32|2.506|2396|24.0|1.00%|\xe7\x89\xa9\xe7\x90\x86\xe6\x9c\xba'
p1037
sssa(dp1038
S'10.10.11.196'
p1039
(dp1040
g9
S'20191128150057815550'
p1041
sg11
I0
sg12
(dp1042
S'pid'
p1043
I36303
sS'retcode'
p1044
I0
sS'stderr'
p1045
g28
sS'stdout'
p1046
S'10.10.11.196|63727|2439|3.83%|48|0.007|89668.2|44662.5|49.81%|\xe7\x89\xa9\xe7\x90\x86\xe6\x9c\xba'
p1047
sssa(dp1048
S'10.10.11.81'
p1049
(dp1050
g9
S'20191128150057815550'
p1051
sg11
I0
sg12
(dp1052
S'pid'
p1053
I31921
sS'retcode'
p1054
I0
sS'stderr'
p1055
g28
sS'stdout'
p1056
S'10.10.11.81|128640|8357|6.50%|32|0.787|1797|102.6|5.71%|\xe7\x89\xa9\xe7\x90\x86\xe6\x9c\xba'
p1057
sssa(dp1058
S'cnbjsjqpsgjdn33'
p1059
(dp1060
g9
S'20191128150057815550'
p1061
sg11
I0
sg12
(dp1062
S'pid'
p1063
I36322
sS'retcode'
p1064
I0
sS'stderr'
p1065
g28
sS'stdout'
p1066
S'10.10.11.134|128363|49682|38.70%|48|1.823|80615|48639.3|60.34%|\xe7\x89\xa9\xe7\x90\x86\xe6\x9c\xba'
p1067
sssa(dp1068
S'cnbjsjqpsgjdn06'
p1069
(dp1070
g9
S'20191128150057815550'
p1071
sg11
I0
sg12
(dp1072
S'pid'
p1073
I14949
sS'retcode'
p1074
I0
sS'stderr'
p1075
g28
sS'stdout'
p1076
S'10.10.11.107|128363|70867|55.21%|48|4.053|80615|50570.8|62.73%|\xe7\x89\xa9\xe7\x90\x86\xe6\x9c\xba'
p1077
sssa(dp1078
S'cnbjsjqpsgjkafka06'
p1079
(dp1080
g9
S'20191128150057815550'
p1081
sg11
I0
sg12
(dp1082
S'pid'
p1083
I6385
sS'retcode'
p1084
I0
sS'stderr'
p1085
g28
sS'stdout'
p1086
S'10.10.11.207|128621|53320|41.46%|32|1.834|2396|1141.7|47.65%|\xe7\x89\xa9\xe7\x90\x86\xe6\x9c\xba'
p1087
sssa(dp1088
S'cnbjsjqpsgjdn36'
p1089
(dp1090
g9
S'20191128150057815550'
p1091
sg11
I0
sg12
(dp1092
S'pid'
p1093
I9851
sS'retcode'
p1094
I0
sS'stderr'
p1095
g28
sS'stdout'
p1096
S'10.10.11.137|128363|69873|54.43%|48|3.830|80615|49621.5|61.55%|\xe7\x89\xa9\xe7\x90\x86\xe6\x9c\xba'
p1097
sssa(dp1098
S'cnbjsjqpsgjdn98'
p1099
(dp1100
g9
S'20191128150057815550'
p1101
sg11
I0
sg12
(dp1102
S'pid'
p1103
I13356
sS'retcode'
p1104
I0
sS'stderr'
p1105
g28
sS'stdout'
p1106
S'10.10.11.199|63727|4250|6.67%|48|0.054|92617.4|54442.9|58.78%|\xe7\x89\xa9\xe7\x90\x86\xe6\x9c\xba'
p1107
sssa(dp1108
S'cnbjsjqpsgjservice15'
p1109
(dp1110
g9
S'20191128150057815550'
p1111
sg11
I0
sg12
(dp1112
S'pid'
p1113
I8069
sS'retcode'
p1114
I0
sS'stderr'
p1115
g28
sS'stdout'
p1116
S'10.10.11.15|63985|33581|52.48%|32|1.116|2396|95.7|3.99%|\xe7\x89\xa9\xe7\x90\x86\xe6\x9c\xba'
p1117
sssa(dp1118
S'cnbjsjqpsgjdn31'
p1119
(dp1120
g9
S'20191128150057815550'
p1121
sg11
I0
sg12
(dp1122
S'pid'
p1123
I35050
sS'retcode'
p1124
I0
sS'stderr'
p1125
g28
sS'stdout'
p1126
S'10.10.11.132|128363|51969|40.49%|48|2.663|80615|48628.6|60.32%|\xe7\x89\xa9\xe7\x90\x86\xe6\x9c\xba'
p1127
sssa(dp1128
S'cnbjsjqpsgjdb01'
p1129
(dp1130
g9
S'20191128150057815550'
p1131
sg11
I0
sg12
(dp1132
S'pid'
p1133
I9064
sS'retcode'
p1134
I0
sS'stderr'
p1135
g28
sS'stdout'
p1136
S'10.10.11.50|128619|13098|10.18%|48|5.614|59524|521.6|0.88%|\xe7\x89\xa9\xe7\x90\x86\xe6\x9c\xba'
p1137
sssa(dp1138
S'10.10.11.70'
p1139
(dp1140
g9
S'20191128150057815550'
p1141
sg11
I0
sg12
(dp1142
S'pid'
p1143
I47488
sS'retcode'
p1144
I0
sS'stderr'
p1145
g28
sS'stdout'
p1146
S'10.10.11.70|128640|58223|45.26%|32|1.005|2396|209.8|8.76%|\xe7\x89\xa9\xe7\x90\x86\xe6\x9c\xba'
p1147
sssa(dp1148
S'cnbjsjqpvjcdn01'
p1149
(dp1150
g9
S'20191128150057815550'
p1151
sg11
I0
sg12
(dp1152
S'pid'
p1153
I19629
sS'retcode'
p1154
I0
sS'stderr'
p1155
S"df: `/mnt': Stale file handle"
p1156
sS'stdout'
p1157
S'10.10.6.32|17970|11102|61.78%|8|1.028|429.5|240.1|55.90%|\xe8\x99\x9a\xe6\x8b\x9f\xe6\x9c\xba'
p1158
sssa(dp1159
S'cnbjsjqpsgjdn18'
p1160
(dp1161
g9
S'20191128150057815550'
p1162
sg11
I0
sg12
(dp1163
S'pid'
p1164
I39700
sS'retcode'
p1165
I0
sS'stderr'
p1166
g28
sS'stdout'
p1167
S'10.10.11.119|128363|51226|39.91%|48|3.232|80615|50185.9|62.25%|\xe7\x89\xa9\xe7\x90\x86\xe6\x9c\xba'
p1168
sssa(dp1169
S'cnbjsjqpsgjdn21'
p1170
(dp1171
g9
S'20191128150057815550'
p1172
sg11
I0
sg12
(dp1173
S'pid'
p1174
I12336
sS'retcode'
p1175
I0
sS'stderr'
p1176
g28
sS'stdout'
p1177
S'10.10.11.122|128363|73683|57.40%|48|2.771|80615|50976.0|63.23%|\xe7\x89\xa9\xe7\x90\x86\xe6\x9c\xba'
p1178
sssa(dp1179
S'cnbjsjqpsgjdn08'
p1180
(dp1181
g9
S'20191128150057815550'
p1182
sg11
I0
sg12
(dp1183
S'pid'
p1184
I42129
sS'retcode'
p1185
I0
sS'stderr'
p1186
g28
sS'stdout'
p1187
S'10.10.11.109|128098|53144|41.49%|48|2.612|80615|48852.9|60.60%|\xe7\x89\xa9\xe7\x90\x86\xe6\x9c\xba'
p1188
sssa(dp1189
S'cnbjsjqpvgjveh01'
p1190
(dp1191
g9
S'20191128150057815550'
p1192
sg11
I0
sg12
(dp1193
S'pid'
p1194
I20863
sS'retcode'
p1195
I0
sS'stderr'
p1196
g28
sS'stdout'
p1197
S'10.10.6.1|7872|2450|31.12%|4|0.334|107.4|35.5|33.05%|\xe8\x99\x9a\xe6\x8b\x9f\xe6\x9c\xba'
p1198
sssa(dp1199
S'cnbjsjqpsgjdn19'
p1200
(dp1201
g9
S'20191128150057815550'
p1202
sg11
I0
sg12
(dp1203
S'pid'
p1204
I43138
sS'retcode'
p1205
I0
sS'stderr'
p1206
g28
sS'stdout'
p1207
S'10.10.11.120|128363|53486|41.67%|48|3.352|80615|50702.7|62.89%|\xe7\x89\xa9\xe7\x90\x86\xe6\x9c\xba'
p1208
sssa(dp1209
S'cnbjsjqpsgjdn28'
p1210
(dp1211
g9
S'20191128150057815550'
p1212
sg11
I0
sg12
(dp1213
S'pid'
p1214
I36558
sS'retcode'
p1215
I0
sS'stderr'
p1216
g28
sS'stdout'
p1217
S'10.10.11.129|128098|51448|40.16%|48|2.684|80615|48619.3|60.31%|\xe7\x89\xa9\xe7\x90\x86\xe6\x9c\xba'
p1218
sssa(dp1219
S'10.10.11.18'
p1220
(dp1221
g9
S'20191128150057815550'
p1222
sg11
I0
sg12
(dp1223
S'pid'
p1224
I51971
sS'retcode'
p1225
I0
sS'stderr'
p1226
g28
sS'stdout'
p1227
S'10.10.11.18|128640|24873|19.33%|32|6.782|2396|17.3|0.72%|\xe7\x89\xa9\xe7\x90\x86\xe6\x9c\xba'
p1228
sssa(dp1229
S'cnbjsjqpsgjdn93'
p1230
(dp1231
g9
S'20191128150057815550'
p1232
sg11
I0
sg12
(dp1233
S'pid'
p1234
I4366
sS'retcode'
p1235
I0
sS'stderr'
p1236
g28
sS'stdout'
p1237
S'10.10.11.194|63727|35277|55.36%|48|6.290|80615|47382.1|58.78%|\xe7\x89\xa9\xe7\x90\x86\xe6\x9c\xba'
p1238
sssa(dp1239
S'cnbjsjqpsgjdn11'
p1240
(dp1241
g9
S'20191128150057815550'
p1242
sg11
I0
sg12
(dp1243
S'pid'
p1244
I39101
sS'retcode'
p1245
I0
sS'stderr'
p1246
g28
sS'stdout'
p1247
S'10.10.11.112|128363|65175|50.77%|48|2.592|80615|48468.1|60.12%|\xe7\x89\xa9\xe7\x90\x86\xe6\x9c\xba'
p1248
sssa(dp1249
S'cnbjsjqpsgjdn38'
p1250
(dp1251
g9
S'20191128150057815550'
p1252
sg11
I0
sg12
(dp1253
S'pid'
p1254
I12702
sS'retcode'
p1255
I0
sS'stderr'
p1256
g28
sS'stdout'
p1257
S'10.10.11.139|128363|54259|42.27%|48|2.829|80615|30723.6|38.11%|\xe7\x89\xa9\xe7\x90\x86\xe6\x9c\xba'
p1258
sssa(dp1259
S'10.10.11.77'
p1260
(dp1261
g9
S'20191128150057815550'
p1262
sg11
I0
sg12
(dp1263
S'pid'
p1264
I55664
sS'retcode'
p1265
I0
sS'stderr'
p1266
g28
sS'stdout'
p1267
S'10.10.11.77|64004|33349|52.10%|32|0.684|2396|217.3|9.07%|\xe7\x89\xa9\xe7\x90\x86\xe6\x9c\xba'
p1268
sssa(dp1269
S'cnbjsjqpsgjdn67'
p1270
(dp1271
g9
S'20191128150057815550'
p1272
sg11
I0
sg12
(dp1273
S'pid'
p1274
I6259
sS'retcode'
p1275
I0
sS'stderr'
p1276
g28
sS'stdout'
p1277
S'10.10.11.168|128363|50098|39.03%|48|1.873|80615|49736.0|61.70%|\xe7\x89\xa9\xe7\x90\x86\xe6\x9c\xba'
p1278
sssa(dp1279
S'10.10.30.1'
p1280
(dp1281
g9
S'20191128150057815550'
p1282
sg11
I0
sg12
(dp1283
S'pid'
p1284
I6275
sS'retcode'
p1285
I0
sS'stderr'
p1286
g28
sS'stdout'
p1287
S'10.10.30.1|34075|30071|46.88%|32|0.421|599.6|75.3|12.56%|\xe7\x89\xa9\xe7\x90\x86\xe6\x9c\xba'
p1288
sssa(dp1289
S'cnbjsjqpsgjservice09'
p1290
(dp1291
g9
S'20191128150057815550'
p1292
sg11
I0
sg12
(dp1293
S'pid'
p1294
I4405
sS'retcode'
p1295
I0
sS'stderr'
p1296
g28
sS'stdout'
p1297
S'10.10.11.9|63985|36799|57.51%|32|2.575|2396|25.8|1.08%|\xe7\x89\xa9\xe7\x90\x86\xe6\x9c\xba'
p1298
sssa(dp1299
S'cnbjsjqpvgldns01'
p1300
(dp1301
g9
S'20191128150057815550'
p1302
sg11
I0
sg12
(dp1303
S'pid'
p1304
I4757
sS'retcode'
p1305
I0
sS'stderr'
p1306
g28
sS'stdout'
p1307
S'10.10.7.4|7872|321|4.08%|4|0.004|107.4|2.3|2.14%|\xe8\x99\x9a\xe6\x8b\x9f\xe6\x9c\xba'
p1308
sssa(dp1309
S'10.10.11.90'
p1310
(dp1311
g9
S'20191128150057815550'
p1312
sg11
I0
sg12
(dp1313
S'pid'
p1314
I9577
sS'retcode'
p1315
I0
sS'stderr'
p1316
g28
sS'stdout'
p1317
S'10.10.11.90|192153|43024|22.39%|32|8.372|20603|1023.2|4.97%|\xe7\x89\xa9\xe7\x90\x86\xe6\x9c\xba'
p1318
sssa(dp1319
S'cnbjsjqpsgjdn60'
p1320
(dp1321
g9
S'20191128150057815550'
p1322
sg11
I0
sg12
(dp1323
S'pid'
p1324
I28451
sS'retcode'
p1325
I0
sS'stderr'
p1326
g28
sS'stdout'
p1327
S'10.10.11.161|128363|57059|44.45%|48|4.537|80615|50684.9|62.87%|\xe7\x89\xa9\xe7\x90\x86\xe6\x9c\xba'
p1328
sssa(dp1329
S'10.10.11.79'
p1330
(dp1331
g9
S'20191128150057815550'
p1332
sg11
I0
sg12
(dp1333
S'pid'
p1334
I23420
sS'retcode'
p1335
I0
sS'stderr'
p1336
g28
sS'stdout'
p1337
S'10.10.11.79|64004|32886|51.38%|32|0.724|2396|232.3|9.70%|\xe7\x89\xa9\xe7\x90\x86\xe6\x9c\xba'
p1338
sssa(dp1339
S'cnbjsjqpsgjdn14'
p1340
(dp1341
g9
S'20191128150057815550'
p1342
sg11
I0
sg12
(dp1343
S'pid'
p1344
I10845
sS'retcode'
p1345
I0
sS'stderr'
p1346
g28
sS'stdout'
p1347
S'10.10.11.115|128363|54592|42.53%|48|2.555|80615|51234.2|63.55%|\xe7\x89\xa9\xe7\x90\x86\xe6\x9c\xba'
p1348
sssa(dp1349
S'cnbjsjqpsgjdn17'
p1350
(dp1351
g9
S'20191128150057815550'
p1352
sg11
I0
sg12
(dp1353
S'pid'
p1354
I22263
sS'retcode'
p1355
I0
sS'stderr'
p1356
g28
sS'stdout'
p1357
S'10.10.11.118|128363|53594|41.75%|48|1.621|80615|46817.2|58.08%|\xe7\x89\xa9\xe7\x90\x86\xe6\x9c\xba'
p1358
sssa(dp1359
S'10.10.11.184'
p1360
(dp1361
g9
S'20191128150057815550'
p1362
sg11
I0
sg12
(dp1363
S'pid'
p1364
I3054
sS'retcode'
p1365
I0
sS'stderr'
p1366
g28
sS'stdout'
p1367
S'10.10.11.184|128098|55305|43.17%|48|2.242|80615|47677.0|59.14%|\xe7\x89\xa9\xe7\x90\x86\xe6\x9c\xba'
p1368
sssa(dp1369
S'cnbjsjqpsgjdn59'
p1370
(dp1371
g9
S'20191128150057815550'
p1372
sg11
I0
sg12
(dp1373
S'pid'
p1374
I36537
sS'retcode'
p1375
I0
sS'stderr'
p1376
g28
sS'stdout'
p1377
S'10.10.11.160|128363|52341|40.77%|48|3.044|80615|50698.6|62.89%|\xe7\x89\xa9\xe7\x90\x86\xe6\x9c\xba'
p1378
sssa(dp1379
S'cnbjsjqpsgjdn16'
p1380
(dp1381
g9
S'20191128150057815550'
p1382
sg11
I0
sg12
(dp1383
S'pid'
p1384
I2652
sS'retcode'
p1385
I0
sS'stderr'
p1386
g28
sS'stdout'
p1387
S'10.10.11.117|128363|71530|55.72%|48|2.594|80615|50812.2|63.03%|\xe7\x89\xa9\xe7\x90\x86\xe6\x9c\xba'
p1388
sssa(dp1389
S'cnbjsjqpsgjdn03'
p1390
(dp1391
g9
S'20191128150057815550'
p1392
sg11
I0
sg12
(dp1393
S'pid'
p1394
I4185
sS'retcode'
p1395
I0
sS'stderr'
p1396
g28
sS'stdout'
p1397
S'10.10.11.104|128363|52389|40.81%|48|2.480|80615|48887.1|60.64%|\xe7\x89\xa9\xe7\x90\x86\xe6\x9c\xba'
p1398
sssa(dp1399
S'cnbjsjqpsgjdn49'
p1400
(dp1401
g9
S'20191128150057815550'
p1402
sg11
I0
sg12
(dp1403
S'pid'
p1404
I43858
sS'retcode'
p1405
I0
sS'stderr'
p1406
g28
sS'stdout'
p1407
S'10.10.11.150|128363|73074|56.93%|48|3.707|80615|50395.3|62.51%|\xe7\x89\xa9\xe7\x90\x86\xe6\x9c\xba'
p1408
sssa(dp1409
S'10.10.30.5'
p1410
(dp1411
g9
S'20191128150057815550'
p1412
sg11
I0
sg12
(dp1413
S'pid'
p1414
I16157
sS'retcode'
p1415
I0
sS'stderr'
p1416
g28
sS'stdout'
p1417
S'10.10.30.5|29472|2260|7.12%|40|0.248|599.6|98.5|16.43%|\xe7\x89\xa9\xe7\x90\x86\xe6\x9c\xba'
p1418
sssa(dp1419
S'10.10.6.55'
p1420
(dp1421
g9
S'20191128150057815550'
p1422
sg11
I0
sg12
(dp1423
S'pid'
p1424
I8914
sS'retcode'
p1425
I0
sS'stderr'
p1426
S'/tmp/tmpX39ctU.sh: line 46: dmidecode: command not found'
p1427
sS'stdout'
p1428
S'10.10.6.55|19990|12398|62.02%|8|0.005|107.4|5.7|5.31%|\xe7\x89\xa9\xe7\x90\x86\xe6\x9c\xba'
p1429
sssa(dp1430
S'cnbjsjqpsgjdn27'
p1431
(dp1432
g9
S'20191128150057815550'
p1433
sg11
I0
sg12
(dp1434
S'pid'
p1435
I41834
sS'retcode'
p1436
I0
sS'stderr'
p1437
g28
sS'stdout'
p1438
S'10.10.11.128|128363|53370|41.58%|48|2.911|80615|50596.8|62.76%|\xe7\x89\xa9\xe7\x90\x86\xe6\x9c\xba'
p1439
sssa(dp1440
S'10.10.11.78'
p1441
(dp1442
g9
S'20191128150057815550'
p1443
sg11
I0
sg12
(dp1444
S'pid'
p1445
I2327
sS'retcode'
p1446
I0
sS'stderr'
p1447
g28
sS'stdout'
p1448
S'10.10.11.78|64004|33038|51.62%|32|0.721|2396|221.4|9.24%|\xe7\x89\xa9\xe7\x90\x86\xe6\x9c\xba'
p1449
sssa(dp1450
S'cnbjsjqpsgjdn57'
p1451
(dp1452
g9
S'20191128150057815550'
p1453
sg11
I0
sg12
(dp1454
S'pid'
p1455
I21257
sS'retcode'
p1456
I0
sS'stderr'
p1457
g28
sS'stdout'
p1458
S'10.10.11.158|128363|71263|55.52%|48|2.905|80615|50698.7|62.89%|\xe7\x89\xa9\xe7\x90\x86\xe6\x9c\xba'
p1459
sssa(dp1460
S'cnbjsjqpsgjdn58'
p1461
(dp1462
g9
S'20191128150057815550'
p1463
sg11
I0
sg12
(dp1464
S'pid'
p1465
I8438
sS'retcode'
p1466
I0
sS'stderr'
p1467
g28
sS'stdout'
p1468
S'10.10.11.159|128363|53650|41.80%|48|3.421|80615|51599.0|64.01%|\xe7\x89\xa9\xe7\x90\x86\xe6\x9c\xba'
p1469
sssa(dp1470
S'cnbjsjqpvjckafka01'
p1471
(dp1472
g9
S'20191128150057815550'
p1473
sg11
I0
sg12
(dp1474
S'pid'
p1475
I7070
sS'retcode'
p1476
I0
sS'stderr'
p1477
g28
sS'stdout'
p1478
S'10.10.6.35|15951|2786|17.47%|6|0.011|107.4|13.6|12.66%|\xe8\x99\x9a\xe6\x8b\x9f\xe6\x9c\xba'
p1479
sssa(dp1480
S'cnbjsjqpsgjdn66'
p1481
(dp1482
g9
S'20191128150057815550'
p1483
sg11
I0
sg12
(dp1484
S'pid'
p1485
I13384
sS'retcode'
p1486
I0
sS'stderr'
p1487
g28
sS'stdout'
p1488
S'10.10.11.167|128363|71551|55.74%|48|5.381|80615|51470.6|63.85%|\xe7\x89\xa9\xe7\x90\x86\xe6\x9c\xba'
p1489
sssa(dp1490
S'cnbjsjqpsgjdn69'
p1491
(dp1492
g9
S'20191128150057815550'
p1493
sg11
I0
sg12
(dp1494
S'pid'
p1495
I3859
sS'retcode'
p1496
I0
sS'stderr'
p1497
g28
sS'stdout'
p1498
S'10.10.11.170|128363|51732|40.30%|48|3.404|80615|50166.1|62.23%|\xe7\x89\xa9\xe7\x90\x86\xe6\x9c\xba'
p1499
sssa(dp1500
S'10.10.6.71'
p1501
(dp1502
g9
S'20191128150057815550'
p1503
sg11
I0
sg12
(dp1504
S'pid'
p1505
I6734
sS'retcode'
p1506
I0
sS'stderr'
p1507
g28
sS'stdout'
p1508
S'10.10.6.71|32110|12772|39.78%|4|0.113|107.4|7.7|7.17%|\xe8\x99\x9a\xe6\x8b\x9f\xe6\x9c\xba'
p1509
sssa(dp1510
S'cnbjsjqpsgjdn37'
p1511
(dp1512
g9
S'20191128150057815550'
p1513
sg11
I0
sg12
(dp1514
S'pid'
p1515
I23484
sS'retcode'
p1516
I0
sS'stderr'
p1517
g28
sS'stdout'
p1518
S'10.10.11.138|128363|60041|46.77%|48|2.944|80615|50019.5|62.05%|\xe7\x89\xa9\xe7\x90\x86\xe6\x9c\xba'
p1519
sssa(dp1520
S'cnbjsjqpsgjkafka04'
p1521
(dp1522
g9
S'20191128150057815550'
p1523
sg11
I0
sg12
(dp1524
S'pid'
p1525
I25145
sS'retcode'
p1526
I0
sS'stderr'
p1527
g28
sS'stdout'
p1528
S'10.10.11.205|128621|69181|53.79%|32|1.930|2396|1048.2|43.75%|\xe7\x89\xa9\xe7\x90\x86\xe6\x9c\xba'
p1529
sssa(dp1530
S'cnbjsjqpsgjservice13'
p1531
(dp1532
g9
S'20191128150057815550'
p1533
sg11
I0
sg12
(dp1534
S'pid'
p1535
I8566
sS'retcode'
p1536
I0
sS'stderr'
p1537
g28
sS'stdout'
p1538
S'10.10.11.13|63985|35722|55.83%|32|2.547|2396|22.4|0.93%|\xe7\x89\xa9\xe7\x90\x86\xe6\x9c\xba'
p1539
sssa(dp1540
S'10.10.6.72'
p1541
(dp1542
g9
S'20191128150057815550'
p1543
sg11
I0
sg12
(dp1544
S'pid'
p1545
I32338
sS'retcode'
p1546
I0
sS'stderr'
p1547
g28
sS'stdout'
p1548
S'10.10.6.72|7872|998|12.69%|4|0.001|107.4|5.5|5.12%|\xe8\x99\x9a\xe6\x8b\x9f\xe6\x9c\xba'
p1549
sssa(dp1550
S'cnbjsjqpsgjdn54'
p1551
(dp1552
g9
S'20191128150057815550'
p1553
sg11
I0
sg12
(dp1554
S'pid'
p1555
I15990
sS'retcode'
p1556
I0
sS'stderr'
p1557
g28
sS'stdout'
p1558
S'10.10.11.155|128363|52489|40.89%|48|3.976|80615|50228.3|62.31%|\xe7\x89\xa9\xe7\x90\x86\xe6\x9c\xba'
p1559
sssa(dp1560
S'10.10.6.67'
p1561
(dp1562
g9
S'20191128150057815550'
p1563
sg11
I0
sg12
(dp1564
S'pid'
p1565
I26481
sS'retcode'
p1566
I0
sS'stderr'
p1567
g28
sS'stdout'
p1568
S'10.10.6.67|7871|213|2.71%|8|0.000|107.4|2.9|2.70%|\xe8\x99\x9a\xe6\x8b\x9f\xe6\x9c\xba'
p1569
sssa(dp1570
S'10.10.11.220'
p1571
(dp1572
g9
S'20191128150057815550'
p1573
sg11
I0
sg12
(dp1574
S'pid'
p1575
I32173
sS'retcode'
p1576
I0
sS'stderr'
p1577
g28
sS'stdout'
p1578
S'10.10.11.220|257912|29372|11.39%|32|0.351|80615|475.7|0.59%|\xe7\x89\xa9\xe7\x90\x86\xe6\x9c\xba'
p1579
sssa(dp1580
S'cnbjsjqpsgjdn46'
p1581
(dp1582
g9
S'20191128150057815550'
p1583
sg11
I0
sg12
(dp1584
S'pid'
p1585
I46022
sS'retcode'
p1586
I0
sS'stderr'
p1587
g28
sS'stdout'
p1588
S'10.10.11.147|128363|56201|43.78%|48|3.204|80615|50939.6|63.19%|\xe7\x89\xa9\xe7\x90\x86\xe6\x9c\xba'
p1589
sssa(dp1590
S'cnbjsjqpvgjdp02'
p1591
(dp1592
g9
S'20191128150057815550'
p1593
sg11
I0
sg12
(dp1594
S'pid'
p1595
I12266
sS'retcode'
p1596
I0
sS'stderr'
p1597
g28
sS'stdout'
p1598
S'10.10.6.52|32109|22201|69.14%|8|0.157|107.4|20.9|19.46%|\xe8\x99\x9a\xe6\x8b\x9f\xe6\x9c\xba'
p1599
sssa(dp1600
S'cnbjsjqpsgjnn02'
p1601
(dp1602
g9
S'20191128150057815550'
p1603
sg11
I0
sg12
(dp1604
S'pid'
p1605
I22250
sS'retcode'
p1606
I0
sS'stderr'
p1607
g28
sS'stdout'
p1608
S'10.10.11.101|128619|54698|42.53%|48|1.705|3594|104.3|2.90%|\xe7\x89\xa9\xe7\x90\x86\xe6\x9c\xba'
p1609
sssa(dp1610
S'cnbjsjqpvjcnn02'
p1611
(dp1612
g9
S'20191128150057815550'
p1613
sg11
I0
sg12
(dp1614
S'pid'
p1615
I30164
sS'retcode'
p1616
I0
sS'stderr'
p1617
g28
sS'stdout'
p1618
S'10.10.6.31|15951|6910|43.32%|6|0.020|107.4|14.9|13.87%|\xe8\x99\x9a\xe6\x8b\x9f\xe6\x9c\xba'
p1619
sssa(dp1620
S'cnbjsjqpsgjdn47'
p1621
(dp1622
g9
S'20191128150057815550'
p1623
sg11
I0
sg12
(dp1624
S'pid'
p1625
I43097
sS'retcode'
p1626
I0
sS'stderr'
p1627
g28
sS'stdout'
p1628
S'10.10.11.148|128363|72377|56.38%|48|2.562|80615|51355.3|63.70%|\xe7\x89\xa9\xe7\x90\x86\xe6\x9c\xba'
p1629
sssa(dp1630
S'cnbjsjqpsgjservice07'
p1631
(dp1632
g9
S'20191128150057815550'
p1633
sg11
I0
sg12
(dp1634
S'pid'
p1635
I15003
sS'retcode'
p1636
I0
sS'stderr'
p1637
g28
sS'stdout'
p1638
S'10.10.11.7|128621|81811|63.61%|32|0.659|2396|433.3|18.08%|\xe7\x89\xa9\xe7\x90\x86\xe6\x9c\xba'
p1639
sssa(dp1640
S'cnbjsjqpsgjdn53'
p1641
(dp1642
g9
S'20191128150057815550'
p1643
sg11
I0
sg12
(dp1644
S'pid'
p1645
I20335
sS'retcode'
p1646
I0
sS'stderr'
p1647
g28
sS'stdout'
p1648
S'10.10.11.154|128363|63500|49.47%|48|3.733|80615|50857.9|63.09%|\xe7\x89\xa9\xe7\x90\x86\xe6\x9c\xba'
p1649
sssa(dp1650
S'10.10.6.73'
p1651
(dp1652
g9
S'20191128150057815550'
p1653
sg11
I0
sg12
(dp1654
S'pid'
p1655
I32561
sS'retcode'
p1656
I0
sS'stderr'
p1657
g28
sS'stdout'
p1658
S'10.10.6.73|7872|1817|23.08%|4|0.001|107.4|7.2|6.70%|\xe8\x99\x9a\xe6\x8b\x9f\xe6\x9c\xba'
p1659
sssa(dp1660
S'cnbjsjqtvgjweb01'
p1661
(dp1662
g9
S'20191128150057815550'
p1663
sg11
I0
sg12
(dp1664
S'pid'
p1665
I31607
sS'retcode'
p1666
I0
sS'stderr'
p1667
g28
sS'stdout'
p1668
S'10.10.6.15|7872|3512|44.61%|6|0.005|107.4|15.9|14.80%|\xe8\x99\x9a\xe6\x8b\x9f\xe6\x9c\xba'
p1669
sssa(dp1670
S'cnbjsjqpvgjcmsp02'
p1671
(dp1672
g9
S'20191128150057815550'
p1673
sg11
I0
sg12
(dp1674
S'pid'
p1675
I26088
sS'retcode'
p1676
I0
sS'stderr'
p1677
g28
sS'stdout'
p1678
S'10.10.6.4|15950|7358|46.13%|8|1.163|107.4|47.5|44.23%|\xe8\x99\x9a\xe6\x8b\x9f\xe6\x9c\xba'
p1679
sssa(dp1680
S'cnbjsjqpsgjdn20'
p1681
(dp1682
g9
S'20191128150057815550'
p1683
sg11
I0
sg12
(dp1684
S'pid'
p1685
I9149
sS'retcode'
p1686
I0
sS'stderr'
p1687
g28
sS'stdout'
p1688
S'10.10.11.121|128363|52973|41.27%|48|2.864|80615|50793.4|63.01%|\xe7\x89\xa9\xe7\x90\x86\xe6\x9c\xba'
p1689
sssa(dp1690
S'10.10.11.231'
p1691
(dp1692
g9
S'20191128150057815550'
p1693
sg11
I0
sg12
(dp1694
S'pid'
p1695
I4094
sS'retcode'
p1696
I0
sS'stderr'
p1697
g28
sS'stdout'
p1698
S'10.10.11.231|128527|73094|56.87%|32|2.411|80615|48373.7|60.01%|\xe7\x89\xa9\xe7\x90\x86\xe6\x9c\xba'
p1699
sssa(dp1700
S'10.10.11.223'
p1701
(dp1702
g9
S'20191128150057815550'
p1703
sg11
I0
sg12
(dp1704
S'pid'
p1705
I29551
sS'retcode'
p1706
I0
sS'stderr'
p1707
g28
sS'stdout'
p1708
S'10.10.11.223|128527|67798|52.75%|32|1.745|80615|45793.6|56.81%|\xe7\x89\xa9\xe7\x90\x86\xe6\x9c\xba'
p1709
sssa(dp1710
S'cnbjsjqpsgjdn45'
p1711
(dp1712
g9
S'20191128150057815550'
p1713
sg11
I0
sg12
(dp1714
S'pid'
p1715
I2569
sS'retcode'
p1716
I0
sS'stderr'
p1717
g28
sS'stdout'
p1718
S'10.10.11.146|128363|55440|43.19%|48|3.038|80615|50579.9|62.74%|\xe7\x89\xa9\xe7\x90\x86\xe6\x9c\xba'
p1719
sssa(dp1720
S'cnbjsjqpsgjnn01'
p1721
(dp1722
g9
S'20191128150057815550'
p1723
sg11
I0
sg12
(dp1724
S'pid'
p1725
I34334
sS'retcode'
p1726
I0
sS'stderr'
p1727
g28
sS'stdout'
p1728
S'10.10.11.100|128619|69940|54.38%|48|1.522|3594|106.0|2.95%|\xe7\x89\xa9\xe7\x90\x86\xe6\x9c\xba'
p1729
sssa(dp1730
S'10.10.11.229'
p1731
(dp1732
g9
S'20191128150057815550'
p1733
sg11
I0
sg12
(dp1734
S'pid'
p1735
I28040
sS'retcode'
p1736
I0
sS'stderr'
p1737
g28
sS'stdout'
p1738
S'10.10.11.229|128527|54321|42.26%|32|4.130|80615|49396.7|61.27%|\xe7\x89\xa9\xe7\x90\x86\xe6\x9c\xba'
p1739
sssa(dp1740
S'10.10.1.9'
p1741
(dp1742
g9
S'20191128150057815550'
p1743
sg11
I0
sg12
(dp1744
S'pid'
p1745
I27047
sS'retcode'
p1746
I0
sS'stderr'
p1747
g28
sS'stdout'
p1748
S'10.10.1.9|27542|4030|12.76%|32|2.718|5391|464.4|8.61%|\xe7\x89\xa9\xe7\x90\x86\xe6\x9c\xba'
p1749
sssa(dp1750
S'10.10.30.4'
p1751
(dp1752
g9
S'20191128150057815550'
p1753
sg11
I0
sg12
(dp1754
S'pid'
p1755
I34782
sS'retcode'
p1756
I0
sS'stderr'
p1757
g28
sS'stdout'
p1758
S'10.10.30.4|54052|9934|15.53%|40|0.168|599.6|37.8|6.30%|\xe7\x89\xa9\xe7\x90\x86\xe6\x9c\xba'
p1759
sssa(dp1760
S'cnbjsjqpvdcsymid01'
p1761
(dp1762
g9
S'20191128150057815550'
p1763
sg11
I0
sg12
(dp1764
S'pid'
p1765
I28451
sS'retcode'
p1766
I0
sS'stderr'
p1767
g28
sS'stdout'
p1768
S'10.10.6.57|11912|1982|16.64%|4|0.002|107.4|6.2|5.77%|\xe8\x99\x9a\xe6\x8b\x9f\xe6\x9c\xba'
p1769
sssa(dp1770
S'cnbjsjqpvjcdn03'
p1771
(dp1772
g9
S'20191128150057815550'
p1773
sg11
I0
sg12
(dp1774
S'pid'
p1775
I25386
sS'retcode'
p1776
I0
sS'stderr'
p1777
g28
sS'stdout'
p1778
S'10.10.6.34|19990|6676|33.40%|8|0.017|322.1|217.0|67.37%|\xe8\x99\x9a\xe6\x8b\x9f\xe6\x9c\xba'
p1779
sssa(dp1780
S'10.10.1.8'
p1781
(dp1782
g9
S'20191128150057815550'
p1783
sg11
I0
sg12
(dp1784
S'pid'
p1785
I1053
sS'retcode'
p1786
I0
sS'stderr'
p1787
g28
sS'stdout'
p1788
S'10.10.1.8|20601|10711|34.20%|32|6.363|5391|679.2|12.60%|\xe7\x89\xa9\xe7\x90\x86\xe6\x9c\xba'
p1789
sssa(dp1790
S'cnbjsjqpsgjkafka01'
p1791
(dp1792
g9
S'20191128150057815550'
p1793
sg11
I0
sg12
(dp1794
S'pid'
p1795
I10027
sS'retcode'
p1796
I0
sS'stderr'
p1797
g28
sS'stdout'
p1798
S'10.10.11.202|128621|52491|40.81%|32|0.529|2396|1006.6|42.01%|\xe7\x89\xa9\xe7\x90\x86\xe6\x9c\xba'
p1799
sssa(dp1800
S'cnbjsjqpsgjdn12'
p1801
(dp1802
g9
S'20191128150057815550'
p1803
sg11
I0
sg12
(dp1804
S'pid'
p1805
I25879
sS'retcode'
p1806
I0
sS'stderr'
p1807
g28
sS'stdout'
p1808
S'10.10.11.113|128363|74092|57.72%|48|2.736|80615|51478.5|63.86%|\xe7\x89\xa9\xe7\x90\x86\xe6\x9c\xba'
p1809
sssa(dp1810
S'10.10.6.10'
p1811
(dp1812
g9
S'20191128150057815550'
p1813
sg11
I0
sg12
(dp1814
S'pid'
p1815
I21509
sS'retcode'
p1816
I0
sS'stderr'
p1817
S'/tmp/tmp01H0Cl.sh: line 46: dmidecode: command not found'
p1818
sS'stdout'
p1819
S'10.10.6.10|3832|255|6.65%|4|0.000|858.9|503.7|58.64%|\xe7\x89\xa9\xe7\x90\x86\xe6\x9c\xba'
p1820
sssa(dp1821
S'10.10.11.181'
p1822
(dp1823
g9
S'20191128150057815550'
p1824
sg11
I0
sg12
(dp1825
S'pid'
p1826
I40091
sS'retcode'
p1827
I0
sS'stderr'
p1828
g28
sS'stdout'
p1829
S'10.10.11.181|128098|74951|58.51%|48|2.124|80615|47738.8|59.22%|\xe7\x89\xa9\xe7\x90\x86\xe6\x9c\xba'
p1830
sssa(dp1831
S'10.10.6.50'
p1832
(dp1833
g9
S'20191128150057815550'
p1834
sg11
I0
sg12
(dp1835
S'pid'
p1836
I17796
sS'retcode'
p1837
I0
sS'stderr'
p1838
S'/tmp/__salt.tmp.A1nnSx.sh: line 46: dmidecode: command not found'
p1839
sS'stdout'
p1840
S'10.10.6.50|32109|24377|75.92%|8|0.045|107.4|11.6|10.80%|\xe7\x89\xa9\xe7\x90\x86\xe6\x9c\xba'
p1841
sssa(dp1842
S'cnbjsjqpvjcnn01'
p1843
(dp1844
g9
S'20191128150057815550'
p1845
sg11
I0
sg12
(dp1846
S'pid'
p1847
I20233
sS'retcode'
p1848
I0
sS'stderr'
p1849
g28
sS'stdout'
p1850
S'10.10.6.30|15951|8193|51.36%|6|0.021|107.4|23.0|21.42%|\xe8\x99\x9a\xe6\x8b\x9f\xe6\x9c\xba'
p1851
sssa(dp1852
S'cnbjsjqpvjclvs01'
p1853
(dp1854
g9
S'20191128150057815550'
p1855
sg11
I0
sg12
(dp1856
S'pid'
p1857
I16399
sS'retcode'
p1858
I0
sS'stderr'
p1859
g28
sS'stdout'
p1860
S'10.10.6.23|3832|192|5.01%|4|0.001|107.4|36.2|33.71%|\xe8\x99\x9a\xe6\x8b\x9f\xe6\x9c\xba'
p1861
sssa(dp1862
S'cnbjsjqpvjcweb01'
p1863
(dp1864
g9
S'20191128150057815550'
p1865
sg11
I0
sg12
(dp1866
S'pid'
p1867
I16195
sS'retcode'
p1868
I0
sS'stderr'
p1869
g28
sS'stdout'
p1870
S'10.10.6.21|7872|6277|79.74%|4|0.004|107.4|24.4|22.72%|\xe8\x99\x9a\xe6\x8b\x9f\xe6\x9c\xba'
p1871
sssa(dp1872
S'10.10.6.74'
p1873
(dp1874
g9
S'20191128150057815550'
p1875
sg11
I0
sg12
(dp1876
S'pid'
p1877
I8148
sS'retcode'
p1878
I0
sS'stderr'
p1879
g28
sS'stdout'
p1880
S'10.10.6.74|15951|4959|31.09%|4|0.001|107.4|13.2|12.29%|\xe8\x99\x9a\xe6\x8b\x9f\xe6\x9c\xba'
p1881
sssa(dp1882
S'10.10.11.34'
p1883
(dp1884
g9
S'20191128150057815550'
p1885
sg11
I0
sg12
(dp1886
S'pid'
p1887
I39511
sS'retcode'
p1888
I0
sS'stderr'
p1889
g28
sS'stdout'
p1890
S'10.10.11.34|128640|24227|18.83%|32|6.269|2396|12.3|0.51%|\xe7\x89\xa9\xe7\x90\x86\xe6\x9c\xba'
p1891
sssa(dp1892
S'cnbjsjqpsgjdn41'
p1893
(dp1894
g9
S'20191128150057815550'
p1895
sg11
I0
sg12
(dp1896
S'pid'
p1897
I37764
sS'retcode'
p1898
I0
sS'stderr'
p1899
g28
sS'stdout'
p1900
S'10.10.11.142|128098|71300|55.66%|48|3.863|80615|51001.7|63.27%|\xe7\x89\xa9\xe7\x90\x86\xe6\x9c\xba'
p1901
sssa(dp1902
S'10.10.1.10'
p1903
(dp1904
g9
S'20191128150057815550'
p1905
sg11
I0
sg12
(dp1906
S'pid'
p1907
I11517
sS'retcode'
p1908
I0
sS'stderr'
p1909
g28
sS'stdout'
p1910
S'10.10.1.10|27460|4111|13.02%|32|4.516|5990|589.9|9.85%|\xe7\x89\xa9\xe7\x90\x86\xe6\x9c\xba'
p1911
sssa(dp1912
S'cnbjsjqpsgjservice08'
p1913
(dp1914
g9
S'20191128150057815550'
p1915
sg11
I0
sg12
(dp1916
S'pid'
p1917
I27022
sS'retcode'
p1918
I0
sS'stderr'
p1919
g28
sS'stdout'
p1920
S'10.10.11.8|128621|43873|34.11%|32|0.117|2396|431.4|18.01%|\xe7\x89\xa9\xe7\x90\x86\xe6\x9c\xba'
p1921
sssa(dp1922
S'cnbjsjqpsgjservice04'
p1923
(dp1924
g9
S'20191128150057815550'
p1925
sg11
I0
sg12
(dp1926
S'pid'
p1927
I23573
sS'retcode'
p1928
I0
sS'stderr'
p1929
g28
sS'stdout'
p1930
S'10.10.11.4|128621|80459|62.56%|32|1.489|2396|454.7|18.98%|\xe7\x89\xa9\xe7\x90\x86\xe6\x9c\xba'
p1931
sssa(dp1932
S'10.10.30.3'
p1933
(dp1934
g9
S'20191128150057815550'
p1935
sg11
I0
sg12
(dp1936
S'pid'
p1937
I22325
sS'retcode'
p1938
I0
sS'stderr'
p1939
g28
sS'stdout'
p1940
S'10.10.30.3|56462|7524|11.76%|40|0.153|599.6|45.6|7.61%|\xe7\x89\xa9\xe7\x90\x86\xe6\x9c\xba'
p1941
sssa(dp1942
S'cnbjsjqpsgjcm01'
p1943
(dp1944
g9
S'20191128150057815550'
p1945
sg11
I0
sg12
(dp1946
S'pid'
p1947
I8068
sS'retcode'
p1948
I0
sS'stderr'
p1949
g28
sS'stdout'
p1950
S'10.10.11.15|63985|33582|52.48%|32|1.116|2396|95.7|3.99%|\xe7\x89\xa9\xe7\x90\x86\xe6\x9c\xba'
p1951
sssa(dp1952
S'cnbjsjqpvjclbs01'
p1953
(dp1954
g9
S'20191128150057815550'
p1955
sg11
I0
sg12
(dp1956
S'pid'
p1957
I17231
sS'retcode'
p1958
I0
sS'stderr'
p1959
g28
sS'stdout'
p1960
S'10.10.6.25|3832|362|9.45%|4|0.004|107.4|55.9|52.05%|\xe8\x99\x9a\xe6\x8b\x9f\xe6\x9c\xba'
p1961
sssa(dp1962
S'cnbjsjqpvgjveh02'
p1963
(dp1964
g9
S'20191128150057815550'
p1965
sg11
I0
sg12
(dp1966
S'pid'
p1967
I18988
sS'retcode'
p1968
I0
sS'stderr'
p1969
g28
sS'stdout'
p1970
S'10.10.6.2|7872|1718|21.82%|4|0.005|107.4|17.3|16.11%|\xe8\x99\x9a\xe6\x8b\x9f\xe6\x9c\xba'
p1971
sssa(dp1972
S'10.10.1.3'
p1973
(dp1974
g9
S'20191128150057815550'
p1975
sg11
I0
sg12
(dp1976
S'pid'
p1977
I18383
sS'retcode'
p1978
I0
sS'stderr'
p1979
g28
sS'stdout'
p1980
S'10.10.1.3|11308|20000|63.88%|32|5.700|5391|1411.0|26.17%|\xe7\x89\xa9\xe7\x90\x86\xe6\x9c\xba'
p1981
sssa(dp1982
S'10.10.1.5'
p1983
(dp1984
g9
S'20191128150057815550'
p1985
sg11
I0
sg12
(dp1986
S'pid'
p1987
I21242
sS'retcode'
p1988
I0
sS'stderr'
p1989
g28
sS'stdout'
p1990
S'10.10.1.5|26952|4358|13.92%|32|4.461|5391|569.6|10.57%|\xe7\x89\xa9\xe7\x90\x86\xe6\x9c\xba'
p1991
sssa(dp1992
S'cnbjsjqpvgjcmsp01'
p1993
(dp1994
g9
S'20191128150057815550'
p1995
sg11
I0
sg12
(dp1996
S'pid'
p1997
I9049
sS'retcode'
p1998
I0
sS'stderr'
p1999
g28
sS'stdout'
p2000
S'10.10.6.3|19990|16650|83.29%|8|0.083|107.4|54.8|51.02%|\xe8\x99\x9a\xe6\x8b\x9f\xe6\x9c\xba'
p2001
sssa(dp2002
S'10.10.11.215'
p2003
(dp2004
g9
S'20191128150057815550'
p2005
sg11
I0
sg12
(dp2006
S'pid'
p2007
I2639
sS'retcode'
p2008
I0
sS'stderr'
p2009
g28
sS'stdout'
p2010
S'10.10.11.215|63727|42560|66.78%|48|0.312|92617.4|10794.9|11.66%|\xe7\x89\xa9\xe7\x90\x86\xe6\x9c\xba'
p2011
sssa(dp2012
S'10.10.1.7'
p2013
(dp2014
g9
S'20191128150057815550'
p2015
sg11
I0
sg12
(dp2016
S'pid'
p2017
I5712
sS'retcode'
p2018
I0
sS'stderr'
p2019
g28
sS'stdout'
p2020
S'10.10.1.7|26855|4454|14.23%|32|5.698|5391|1058.1|19.63%|\xe7\x89\xa9\xe7\x90\x86\xe6\x9c\xba'
p2021
sssa(dp2022
S'cnbjsjqpvjckafka02'
p2023
(dp2024
g9
S'20191128150057815550'
p2025
sg11
I0
sg12
(dp2026
S'pid'
p2027
I8288
sS'retcode'
p2028
I0
sS'stderr'
p2029
g28
sS'stdout'
p2030
S'10.10.6.36|15951|2735|17.15%|6|0.009|107.4|13.5|12.57%|\xe8\x99\x9a\xe6\x8b\x9f\xe6\x9c\xba'
p2031
sssa(dp2032
S'cnbjsjqpsgjdn90'
p2033
(dp2034
g9
S'20191128150057815550'
p2035
sg11
I0
sg12
(dp2036
S'pid'
p2037
I39573
sS'retcode'
p2038
I0
sS'stderr'
p2039
g28
sS'stdout'
p2040
S'10.10.11.191|63727|33157|52.03%|48|1.077|80615|46954.1|58.24%|\xe7\x89\xa9\xe7\x90\x86\xe6\x9c\xba'
p2041
sssa(dp2042
S'10.10.30.2'
p2043
(dp2044
g9
S'20191128150057815550'
p2045
sg11
I0
sg12
(dp2046
S'pid'
p2047
I17147
sS'retcode'
p2048
I0
sS'stderr'
p2049
g28
sS'stdout'
p2050
S'10.10.30.2|56277|7709|12.05%|40|0.125|599.6|45.4|7.57%|\xe7\x89\xa9\xe7\x90\x86\xe6\x9c\xba'
p2051
sssa(dp2052
S'10.10.11.197'
p2053
(dp2054
g9
S'20191128150057815550'
p2055
sg11
I0
sg12
(dp2056
S'pid'
p2057
I16832
sS'retcode'
p2058
I0
sS'stderr'
p2059
g28
sS'stdout'
p2060
S'10.10.11.197|63727|6704|10.52%|48|0.118|80615|60388.7|74.91%|\xe7\x89\xa9\xe7\x90\x86\xe6\x9c\xba'
p2061
sssa(dp2062
S'10.10.6.56'
p2063
(dp2064
g9
S'20191128150057815550'
p2065
sg11
I0
sg12
(dp2066
S'pid'
p2067
I28314
sS'retcode'
p2068
I0
sS'stderr'
p2069
g28
sS'stdout'
p2070
S'10.10.6.56|19991|16142|80.75%|4|0.026|107.4|43.8|40.78%|\xe8\x99\x9a\xe6\x8b\x9f\xe6\x9c\xba'
p2071
sssa(dp2072
S'cnbjsjqpvgjdp03'
p2073
(dp2074
g9
S'20191128150057815550'
p2075
sg11
I0
sg12
(dp2076
S'pid'
p2077
I31527
sS'retcode'
p2078
I0
sS'stderr'
p2079
g28
sS'stdout'
p2080
S'10.10.6.54|19991|17512|87.60%|4|0.148|107.4|64.9|60.43%|\xe8\x99\x9a\xe6\x8b\x9f\xe6\x9c\xba'
p2081
sssa(dp2082
S'cnbjsjqpsgjdn29'
p2083
(dp2084
g9
S'20191128150057815550'
p2085
sg11
I0
sg12
(dp2086
S'pid'
p2087
I18535
sS'retcode'
p2088
I0
sS'stderr'
p2089
g28
sS'stdout'
p2090
S'10.10.11.130|128363|52249|40.70%|48|2.412|80615|49881.4|61.88%|\xe7\x89\xa9\xe7\x90\x86\xe6\x9c\xba'
p2091
sssa(dp2092
S'cnbjsjqpvjcweb02'
p2093
(dp2094
g9
S'20191128150057815550'
p2095
sg11
I0
sg12
(dp2096
S'pid'
p2097
I8164
sS'retcode'
p2098
I0
sS'stderr'
p2099
g28
sS'stdout'
p2100
S'10.10.6.22|32110|10196|31.75%|4|2.897|107.4|66.2|61.64%|\xe8\x99\x9a\xe6\x8b\x9f\xe6\x9c\xba'
p2101
sssa(dp2102
S'cnbjsjqpvgjcomsyn01'
p2103
(dp2104
g9
S'20191128150057815550'
p2105
sg11
I0
sg12
(dp2106
S'pid'
p2107
I26629
sS'retcode'
p2108
I0
sS'stderr'
p2109
g28
sS'stdout'
p2110
S'10.10.6.17|5851|477|8.15%|8|0.037|107.4|6.6|6.15%|\xe8\x99\x9a\xe6\x8b\x9f\xe6\x9c\xba'
p2111
sssa(dp2112
S'cnbjsjqpsgjdn56'
p2113
(dp2114
g9
S'20191128150057815550'
p2115
sg11
I0
sg12
(dp2116
S'pid'
p2117
I26403
sS'retcode'
p2118
I0
sS'stderr'
p2119
g28
sS'stdout'
p2120
S'10.10.11.157|128363|53595|41.75%|48|4.086|80615|51185.4|63.49%|\xe7\x89\xa9\xe7\x90\x86\xe6\x9c\xba'
p2121
sssa(dp2122
S'cnbjsjqpvjclbs02'
p2123
(dp2124
g9
S'20191128150057815550'
p2125
sg11
I0
sg12
(dp2126
S'pid'
p2127
I17109
sS'retcode'
p2128
I0
sS'stderr'
p2129
g28
sS'stdout'
p2130
S'10.10.6.26|3832|322|8.40%|4|0.004|107.4|69.1|64.34%|\xe8\x99\x9a\xe6\x8b\x9f\xe6\x9c\xba'
p2131
sssa(dp2132
S'cnbjsjqtvgjweb02'
p2133
(dp2134
g9
S'20191128150057815550'
p2135
sg11
I0
sg12
(dp2136
S'pid'
p2137
I4611
sS'retcode'
p2138
I0
sS'stderr'
p2139
g28
sS'stdout'
p2140
S'10.10.6.16|7872|3118|39.60%|6|0.006|107.4|28.3|26.35%|\xe8\x99\x9a\xe6\x8b\x9f\xe6\x9c\xba'
p2141
sssa(dp2142
S'10.10.11.39'
p2143
(dp2144
g9
S'20191128150057815550'
p2145
sg11
I0
sg12
(dp2146
S'pid'
p2147
I50596
sS'retcode'
p2148
I0
sS'stderr'
p2149
g28
sS'stdout'
p2150
S'10.10.11.39|62922|923|1.45%|32|0.016|5395|2.6|0.05%|\xe7\x89\xa9\xe7\x90\x86\xe6\x9c\xba'
p2151
sssa(dp2152
S'cnbjsjqpvgjdub02'
p2153
(dp2154
g9
S'20191128150057815550'
p2155
sg11
I0
sg12
(dp2156
S'pid'
p2157
I16800
sS'retcode'
p2158
I0
sS'stderr'
p2159
g28
sS'stdout'
p2160
S'10.10.6.14|5851|1603|27.40%|8|0.000|107.4|24.9|23.18%|\xe8\x99\x9a\xe6\x8b\x9f\xe6\x9c\xba'
p2161
sssa(dp2162
S'10.10.1.6'
p2163
(dp2164
g9
S'20191128150057815550'
p2165
sg11
I0
sg12
(dp2166
S'pid'
p2167
I21557
sS'retcode'
p2168
I0
sS'stderr'
p2169
g28
sS'stdout'
p2170
S'10.10.1.6|26885|4425|14.13%|32|5.296|5391|814.4|15.11%|\xe7\x89\xa9\xe7\x90\x86\xe6\x9c\xba'
p2171
sssa(dp2172
S'10.10.11.221'
p2173
(dp2174
g9
S'20191128150057815550'
p2175
sg11
I0
sg12
(dp2176
S'pid'
p2177
I8160
sS'retcode'
p2178
I0
sS'stderr'
p2179
g28
sS'stdout'
p2180
S'10.10.11.221|257912|30258|11.73%|32|0.310|80615|469.3|0.58%|\xe7\x89\xa9\xe7\x90\x86\xe6\x9c\xba'
p2181
sssa(dp2182
S'cnbjsjqpsgjdn88'
p2183
(dp2184
g9
S'20191128150057815550'
p2185
sg11
I0
sg12
(dp2186
S'pid'
p2187
I29302
sS'retcode'
p2188
I0
sS'stderr'
p2189
g28
sS'stdout'
p2190
S'10.10.11.189|128363|54123|42.16%|48|2.455|80615|49149.8|60.97%|\xe7\x89\xa9\xe7\x90\x86\xe6\x9c\xba'
p2191
sssa(dp2192
S'10.10.30.6'
p2193
(dp2194
g9
S'20191128150057815550'
p2195
sg11
I0
sg12
(dp2196
S'pid'
p2197
I37657
sS'retcode'
p2198
I0
sS'stderr'
p2199
g28
sS'stdout'
p2200
S'10.10.30.6|29896|1836|5.79%|40|0.084|599.6|148.1|24.70%|\xe7\x89\xa9\xe7\x90\x86\xe6\x9c\xba'
p2201
sssa(dp2202
S'cnbjsjqpvjcdn02'
p2203
(dp2204
g9
S'20191128150057815550'
p2205
sg11
I0
sg12
(dp2206
S'pid'
p2207
I29094
sS'retcode'
p2208
I0
sS'stderr'
p2209
g28
sS'stdout'
p2210
S'10.10.6.33|17970|6493|36.13%|8|0.011|322.1|217.0|67.37%|\xe8\x99\x9a\xe6\x8b\x9f\xe6\x9c\xba'
p2211
sssa(dp2212
S'10.10.11.180'
p2213
(dp2214
g9
S'20191128150057815550'
p2215
sg11
I0
sg12
(dp2216
S'pid'
p2217
I34939
sS'retcode'
p2218
I0
sS'stderr'
p2219
g28
sS'stdout'
p2220
S'10.10.11.180|128098|53359|41.65%|48|3.243|80615|47916.4|59.44%|\xe7\x89\xa9\xe7\x90\x86\xe6\x9c\xba'
p2221
sssa(dp2222
S'cnbjsjqpsgjdn09'
p2223
(dp2224
g9
S'20191128150057815550'
p2225
sg11
I0
sg12
(dp2226
S'pid'
p2227
I39139
sS'retcode'
p2228
I0
sS'stderr'
p2229
g28
sS'stdout'
p2230
S'10.10.11.110|128363|68995|53.75%|48|3.737|80615|50989.0|63.25%|\xe7\x89\xa9\xe7\x90\x86\xe6\x9c\xba'
p2231
sssa(dp2232
S'cnbjsjqpvdcsymid02'
p2233
(dp2234
g9
S'20191128150057815550'
p2235
sg11
I0
sg12
(dp2236
S'pid'
p2237
I28468
sS'retcode'
p2238
I0
sS'stderr'
p2239
g28
sS'stdout'
p2240
S'10.10.6.58|11912|669|5.62%|4|0.003|107.4|4.7|4.38%|\xe8\x99\x9a\xe6\x8b\x9f\xe6\x9c\xba'
p2241
sssa(dp2242
S'10.10.11.182'
p2243
(dp2244
g9
S'20191128150057815550'
p2245
sg11
I0
sg12
(dp2246
S'pid'
p2247
I34398
sS'retcode'
p2248
I0
sS'stderr'
p2249
g28
sS'stdout'
p2250
S'10.10.11.182|128098|72178|56.35%|48|2.660|80615|49780.4|61.75%|\xe7\x89\xa9\xe7\x90\x86\xe6\x9c\xba'
p2251
sssa(dp2252
S'10.10.1.4'
p2253
(dp2254
g9
S'20191128150057815550'
p2255
sg11
I0
sg12
(dp2256
S'pid'
p2257
I8418
sS'retcode'
p2258
I0
sS'stderr'
p2259
g28
sS'stdout'
p2260
S'10.10.1.4|27276|4035|12.89%|32|3.508|5391|668.5|12.40%|\xe7\x89\xa9\xe7\x90\x86\xe6\x9c\xba'
p2261
sssa(dp2262
S'cnbjsjqpsgjdn35'
p2263
(dp2264
g9
S'20191128150057815550'
p2265
sg11
I0
sg12
(dp2266
S'pid'
p2267
I6477
sS'retcode'
p2268
I0
sS'stderr'
p2269
g28
sS'stdout'
p2270
S'10.10.11.136|128363|48500|37.78%|48|1.531|80615|48052.8|59.61%|\xe7\x89\xa9\xe7\x90\x86\xe6\x9c\xba'
p2271
sssa(dp2272
S'10.10.11.183'
p2273
(dp2274
g9
S'20191128150057815550'
p2275
sg11
I0
sg12
(dp2276
S'pid'
p2277
I48240
sS'retcode'
p2278
I0
sS'stderr'
p2279
g28
sS'stdout'
p2280
S'10.10.11.183|128098|55377|43.23%|48|2.081|80615|49289.5|61.14%|\xe7\x89\xa9\xe7\x90\x86\xe6\x9c\xba'
p2281
sssa(dp2282
S'cnbjsjqpsgjdn48'
p2283
(dp2284
g9
S'20191128150057815550'
p2285
sg11
I0
sg12
(dp2286
S'pid'
p2287
I45726
sS'retcode'
p2288
I0
sS'stderr'
p2289
g28
sS'stdout'
p2290
S'10.10.11.149|128363|51634|40.22%|48|4.111|80615|50822.5|63.04%|\xe7\x89\xa9\xe7\x90\x86\xe6\x9c\xba'
p2291
sssa(dp2292
S'cnbjsjqpvgldns02'
p2293
(dp2294
g9
S'20191128150057815550'
p2295
sg11
I0
sg12
(dp2296
S'pid'
p2297
I31720
sS'retcode'
p2298
I0
sS'stderr'
p2299
g28
sS'stdout'
p2300
S'10.10.7.5|7872|873|11.09%|4|0.002|107.4|6.7|6.24%|\xe8\x99\x9a\xe6\x8b\x9f\xe6\x9c\xba'
p2301
sssa(dp2302
S'cnbjsjqpsgjdn02'
p2303
(dp2304
g9
S'20191128150057815550'
p2305
sg11
I0
sg12
(dp2306
S'pid'
p2307
I41326
sS'retcode'
p2308
I0
sS'stderr'
p2309
g28
sS'stdout'
p2310
S'10.10.11.103|128363|55368|43.13%|48|2.371|80615|50450.4|62.58%|\xe7\x89\xa9\xe7\x90\x86\xe6\x9c\xba'
p2311
sssa(dp2312
S'10.10.1.13'
p2313
(dp2314
g9
S'20191128150057815550'
p2315
sg11
I0
sg12
(dp2316
S'pid'
p2317
I23667
sS'retcode'
p2318
I0
sS'stderr'
p2319
g28
sS'stdout'
p2320
S'10.10.1.13|58746|5101|7.99%|32|6.290|5395|379.1|7.03%|\xe7\x89\xa9\xe7\x90\x86\xe6\x9c\xba'
p2321
sssa(dp2322
S'cnbjsjqpsgjdn22'
p2323
(dp2324
g9
S'20191128150057815550'
p2325
sg11
I0
sg12
(dp2326
S'pid'
p2327
I47348
sS'retcode'
p2328
I0
sS'stderr'
p2329
g28
sS'stdout'
p2330
S'10.10.11.123|128363|67711|52.75%|48|2.675|80615|50821.8|63.04%|\xe7\x89\xa9\xe7\x90\x86\xe6\x9c\xba'
p2331
sssa(dp2332
S'cnbjsjqpsgjdn61'
p2333
(dp2334
g9
S'20191128150057815550'
p2335
sg11
I0
sg12
(dp2336
S'pid'
p2337
I7302
sS'retcode'
p2338
I0
sS'stderr'
p2339
g28
sS'stdout'
p2340
S'10.10.11.162|128363|51188|39.88%|48|3.697|80615|50396.5|62.52%|\xe7\x89\xa9\xe7\x90\x86\xe6\x9c\xba'
p2341
sssa(dp2342
S'10.10.11.232'
p2343
(dp2344
g9
S'20191128150057815550'
p2345
sg11
I0
sg12
(dp2346
S'pid'
p2347
I9926
sS'retcode'
p2348
I0
sS'stderr'
p2349
g28
sS'stdout'
p2350
S'10.10.11.232|257912|27359|10.61%|32|0.339|80615|482.1|0.60%|\xe7\x89\xa9\xe7\x90\x86\xe6\x9c\xba'
p2351
sssa(dp2352
S'cnbjsjqpvjcservice01'
p2353
(dp2354
g9
S'20191128150057815550'
p2355
sg11
I0
sg12
(dp2356
S'pid'
p2357
I25563
sS'retcode'
p2358
I0
sS'stderr'
p2359
g28
sS'stdout'
p2360
S'10.10.6.27|7872|7599|96.53%|4|0.005|107.4|28.5|26.54%|\xe8\x99\x9a\xe6\x8b\x9f\xe6\x9c\xba'
p2361
sssa(dp2362
S'10.10.11.174'
p2363
(dp2364
g9
S'20191128150057815550'
p2365
sg11
I0
sg12
(dp2366
S'pid'
p2367
I37129
sS'retcode'
p2368
I0
sS'stderr'
p2369
g28
sS'stdout'
p2370
S'10.10.11.174|128527|49061|38.17%|32|2.196|80615|46505.8|57.69%|\xe7\x89\xa9\xe7\x90\x86\xe6\x9c\xba'
p2371
sssa(dp2372
S'10.10.1.14'
p2373
(dp2374
g9
S'20191128150057815550'
p2375
sg11
I0
sg12
(dp2376
S'pid'
p2377
I46741
sS'retcode'
p2378
I0
sS'stderr'
p2379
g28
sS'stdout'
p2380
S'10.10.1.14|59434|4414|6.91%|32|9.296|5395|1395.5|25.87%|\xe7\x89\xa9\xe7\x90\x86\xe6\x9c\xba'
p2381
sssa(dp2382
S'cnbjsjqpsgjdn30'
p2383
(dp2384
g9
S'20191128150057815550'
p2385
sg11
I0
sg12
(dp2386
S'pid'
p2387
I4583
sS'retcode'
p2388
I0
sS'stderr'
p2389
g28
sS'stdout'
p2390
S'10.10.11.131|128363|59868|46.64%|48|2.843|80615|51034.6|63.31%|\xe7\x89\xa9\xe7\x90\x86\xe6\x9c\xba'
p2391
sssa(dp2392
S'10.10.11.222'
p2393
(dp2394
g9
S'20191128150057815550'
p2395
sg11
I0
sg12
(dp2396
S'pid'
p2397
I22195
sS'retcode'
p2398
I0
sS'stderr'
p2399
g28
sS'stdout'
p2400
S'10.10.11.222|128527|72149|56.14%|32|3.422|72613.4|44252.6|60.94%|\xe7\x89\xa9\xe7\x90\x86\xe6\x9c\xba'
p2401
sssa(dp2402
S'10.10.11.178'
p2403
(dp2404
g9
S'20191128150057815550'
p2405
sg11
I0
sg12
(dp2406
S'pid'
p2407
I41798
sS'retcode'
p2408
I0
sS'stderr'
p2409
g28
sS'stdout'
p2410
S'10.10.11.178|128527|72458|56.38%|32|2.507|80615|49803.6|61.78%|\xe7\x89\xa9\xe7\x90\x86\xe6\x9c\xba'
p2411
sssa(dp2412
S'10.10.11.186'
p2413
(dp2414
g9
S'20191128150057815550'
p2415
sg11
I0
sg12
(dp2416
S'pid'
p2417
I4003
sS'retcode'
p2418
I0
sS'stderr'
p2419
g28
sS'stdout'
p2420
S'10.10.11.186|128098|47167|36.82%|48|0.301|80615|4462.5|5.54%|\xe7\x89\xa9\xe7\x90\x86\xe6\x9c\xba'
p2421
sssa(dp2422
S'cnbjsjqpsgjdn01'
p2423
(dp2424
g9
S'20191128150057815550'
p2425
sg11
I0
sg12
(dp2426
S'pid'
p2427
I41712
sS'retcode'
p2428
I0
sS'stderr'
p2429
g28
sS'stdout'
p2430
S'10.10.11.102|128363|63944|49.81%|48|4.402|80615|52564.9|65.20%|\xe7\x89\xa9\xe7\x90\x86\xe6\x9c\xba'
p2431
sssa(dp2432
S'10.10.11.40'
p2433
(dp2434
g9
S'20191128150057815550'
p2435
sg11
I0
sg12
(dp2436
S'pid'
p2437
I50517
sS'retcode'
p2438
I0
sS'stderr'
p2439
g28
sS'stdout'
p2440
S'10.10.11.40|62949|897|1.40%|32|0.014|5395|2.6|0.05%|\xe7\x89\xa9\xe7\x90\x86\xe6\x9c\xba'
p2441
sssa(dp2442
S'10.10.6.75'
p2443
(dp2444
g9
S'20191128150057815550'
p2445
sg11
I0
sg12
(dp2446
S'pid'
p2447
I30704
sS'retcode'
p2448
I0
sS'stderr'
p2449
S'/tmp/__salt.tmp.uzBxdg.sh: line 46: dmidecode: command not found'
p2450
sS'stdout'
p2451
S'10.10.6.75|19990|9340|46.72%|8|6.876|107.4|3.1|2.89%|\xe7\x89\xa9\xe7\x90\x86\xe6\x9c\xba'
p2452
sssa(dp2453
S'cnbjsjqpsgjdn92'
p2454
(dp2455
g9
S'20191128150057815550'
p2456
sg11
I0
sg12
(dp2457
S'pid'
p2458
I20282
sS'retcode'
p2459
I0
sS'stderr'
p2460
S'awk: fatal: division by zero attempted'
p2461
sS'stdout'
p2462
S'10.10.11.193|63727|29178|45.78%|48||80615|42473.0|52.69%|\xe7\x89\xa9\xe7\x90\x86\xe6\x9c\xba'
p2463
sssa(dp2464
S'10.10.11.225'
p2465
(dp2466
g9
S'20191128150057815550'
p2467
sg11
I0
sg12
(dp2468
S'pid'
p2469
I10576
sS'retcode'
p2470
I0
sS'stderr'
p2471
g28
sS'stdout'
p2472
S'10.10.11.225|128527|52647|40.96%|32|2.543|80615|48964.6|60.74%|\xe7\x89\xa9\xe7\x90\x86\xe6\x9c\xba'
p2473
sssa(dp2474
S'10.10.11.177'
p2475
(dp2476
g9
S'20191128150057815550'
p2477
sg11
I0
sg12
(dp2478
S'pid'
p2479
I38297
sS'retcode'
p2480
I0
sS'stderr'
p2481
g28
sS'stdout'
p2482
S'10.10.11.177|128527|69215|53.85%|32|2.648|80615|49202.7|61.03%|\xe7\x89\xa9\xe7\x90\x86\xe6\x9c\xba'
p2483
sssa(dp2484
S'10.10.30.8'
p2485
(dp2486
g9
S'20191128150057815550'
p2487
sg11
I0
sg12
(dp2488
S'pid'
p2489
I21713
sS'retcode'
p2490
I0
sS'stderr'
p2491
g28
sS'stdout'
p2492
S'10.10.30.8|62982|1209|1.88%|8|0.144|1497.2|176.3|11.78%|\xe7\x89\xa9\xe7\x90\x86\xe6\x9c\xba'
p2493
sssa(dp2494
S'cnbjsjqpsgjdn32'
p2495
(dp2496
g9
S'20191128150057815550'
p2497
sg11
I0
sg12
(dp2498
S'pid'
p2499
I36112
sS'retcode'
p2500
I0
sS'stderr'
p2501
g28
sS'stdout'
p2502
S'10.10.11.133|128363|49743|38.75%|48|2.775|80615|49500.6|61.40%|\xe7\x89\xa9\xe7\x90\x86\xe6\x9c\xba'
p2503
sssa(dp2504
S'10.10.11.228'
p2505
(dp2506
g9
S'20191128150057815550'
p2507
sg11
I0
sg12
(dp2508
S'pid'
p2509
I54463
sS'retcode'
p2510
I0
sS'stderr'
p2511
g28
sS'stdout'
p2512
S'10.10.11.228|128527|51825|40.32%|32|2.730|80615|48846.2|60.59%|\xe7\x89\xa9\xe7\x90\x86\xe6\x9c\xba'
p2513
sssa(dp2514
S'10.10.11.172'
p2515
(dp2516
g9
S'20191128150057815550'
p2517
sg11
I0
sg12
(dp2518
S'pid'
p2519
I13665
sS'retcode'
p2520
I0
sS'stderr'
p2521
g28
sS'stdout'
p2522
S'10.10.11.172|128527|51937|40.41%|32|2.506|80615|48798.1|60.53%|\xe7\x89\xa9\xe7\x90\x86\xe6\x9c\xba'
p2523
sssa(dp2524
S'cnbjsjqpsgjdn94'
p2525
(dp2526
g9
S'20191128150057815550'
p2527
sg11
I0
sg12
(dp2528
S'pid'
p2529
I8904
sS'retcode'
p2530
I0
sS'stderr'
p2531
g28
sS'stdout'
p2532
S'10.10.11.195|63727|35265|55.34%|48|6.213|80615|47088.9|58.41%|\xe7\x89\xa9\xe7\x90\x86\xe6\x9c\xba'
p2533
sssa(dp2534
S'10.10.11.171'
p2535
(dp2536
g9
S'20191128150057815550'
p2537
sg11
I0
sg12
(dp2538
S'pid'
p2539
I27640
sS'retcode'
p2540
I0
sS'stderr'
p2541
g28
sS'stdout'
p2542
S'10.10.11.171|128527|56589|44.03%|32|2.507|80615|49112.9|60.92%|\xe7\x89\xa9\xe7\x90\x86\xe6\x9c\xba'
p2543
sssa(dp2544
S'cnbjsjqpsgjdn91'
p2545
(dp2546
g9
S'20191128150057815550'
p2547
sg11
I0
sg12
(dp2548
S'pid'
p2549
I7387
sS'retcode'
p2550
I0
sS'stderr'
p2551
g28
sS'stdout'
p2552
S'10.10.11.192|63727|34824|54.65%|48|1.395|80615|46812.5|58.07%|\xe7\x89\xa9\xe7\x90\x86\xe6\x9c\xba'
p2553
sssa(dp2554
S'10.10.1.12'
p2555
(dp2556
g9
S'20191128150057815550'
p2557
sg11
I0
sg12
(dp2558
S'pid'
p2559
I22590
sS'retcode'
p2560
I0
sS'stderr'
p2561
g28
sS'stdout'
p2562
S'10.10.1.12|58295|5552|8.69%|32|5.212|5395|453.2|8.40%|\xe7\x89\xa9\xe7\x90\x86\xe6\x9c\xba'
p2563
sssa(dp2564
S'cnbjsjqpsgjkafka10'
p2565
(dp2566
g9
S'20191128150057815550'
p2567
sg11
I0
sg12
(dp2568
S'pid'
p2569
I1783
sS'retcode'
p2570
I0
sS'stderr'
p2571
g28
sS'stdout'
p2572
S'10.10.11.211|128621|61215|47.59%|32|1.614|2396|1132.3|47.26%|\xe7\x89\xa9\xe7\x90\x86\xe6\x9c\xba'
p2573
sssa(dp2574
S'10.10.11.230'
p2575
(dp2576
g9
S'20191128150057815550'
p2577
sg11
I0
sg12
(dp2578
S'pid'
p2579
I44195
sS'retcode'
p2580
I0
sS'stderr'
p2581
g28
sS'stdout'
p2582
S'10.10.11.230|128527|54991|42.79%|32|2.896|80615|48130.4|59.70%|\xe7\x89\xa9\xe7\x90\x86\xe6\x9c\xba'
p2583
sssa(dp2584
S'cnbjsjqpsgjkafka05'
p2585
(dp2586
g9
S'20191128150057815550'
p2587
sg11
I0
sg12
(dp2588
S'pid'
p2589
I29747
sS'retcode'
p2590
I0
sS'stderr'
p2591
g28
sS'stdout'
p2592
S'10.10.11.206|128621|62450|48.55%|32|1.442|2396|1058.2|44.17%|\xe7\x89\xa9\xe7\x90\x86\xe6\x9c\xba'
p2593
sssa(dp2594
S'cnbjsjqpsgjdb04'
p2595
(dp2596
g9
S'20191128150057815550'
p2597
sg11
I0
sg12
(dp2598
S'pid'
p2599
I1009
sS'retcode'
p2600
I0
sS'stderr'
p2601
g28
sS'stdout'
p2602
S'10.10.11.53|128619|39570|30.77%|48|0.064|5038|1594.3|31.65%|\xe7\x89\xa9\xe7\x90\x86\xe6\x9c\xba'
p2603
sssa(dp2604
S'cnbjsjqpsgjservice01'
p2605
(dp2606
g9
S'20191128150057815550'
p2607
sg11
I0
sg12
(dp2608
S'pid'
p2609
I21772
sS'retcode'
p2610
I0
sS'stderr'
p2611
g28
sS'stdout'
p2612
S'10.10.11.1|128621|75400|58.62%|32|1.577|2396|701.5|29.28%|\xe7\x89\xa9\xe7\x90\x86\xe6\x9c\xba'
p2613
sssa(dp2614
S'10.10.11.175'
p2615
(dp2616
g9
S'20191128150057815550'
p2617
sg11
I0
sg12
(dp2618
S'pid'
p2619
I12287
sS'retcode'
p2620
I0
sS'stderr'
p2621
g28
sS'stdout'
p2622
S'10.10.11.175|128527|53860|41.91%|32|3.362|80615|49160.5|60.98%|\xe7\x89\xa9\xe7\x90\x86\xe6\x9c\xba'
p2623
sssa(dp2624
S'cnbjsjqpsgjkafka09'
p2625
(dp2626
g9
S'20191128150057815550'
p2627
sg11
I0
sg12
(dp2628
S'pid'
p2629
I25994
sS'retcode'
p2630
I0
sS'stderr'
p2631
g28
sS'stdout'
p2632
S'10.10.11.210|128621|68617|53.35%|32|2.365|2396|1183.4|49.39%|\xe7\x89\xa9\xe7\x90\x86\xe6\x9c\xba'
p2633
sssa(dp2634
S'10.10.11.173'
p2635
(dp2636
g9
S'20191128150057815550'
p2637
sg11
I0
sg12
(dp2638
S'pid'
p2639
I34630
sS'retcode'
p2640
I0
sS'stderr'
p2641
g28
sS'stdout'
p2642
S'10.10.11.173|128527|53538|41.65%|32|3.336|80615|48834.1|60.58%|\xe7\x89\xa9\xe7\x90\x86\xe6\x9c\xba'
p2643
sssa(dp2644
S'10.10.1.11'
p2645
(dp2646
g9
S'20191128150057815550'
p2647
sg11
I0
sg12
(dp2648
S'pid'
p2649
I32064
sS'retcode'
p2650
I0
sS'stderr'
p2651
g28
sS'stdout'
p2652
S'10.10.1.11|52859|10988|17.21%|32|6.537|5395|2222.1|41.19%|\xe7\x89\xa9\xe7\x90\x86\xe6\x9c\xba'
p2653
sssa(dp2654
S'cnbjsjqpsgjkafka03'
p2655
(dp2656
g9
S'20191128150057815550'
p2657
sg11
I0
sg12
(dp2658
S'pid'
p2659
I3794
sS'retcode'
p2660
I0
sS'stderr'
p2661
g28
sS'stdout'
p2662
S'10.10.11.204|128621|58612|45.57%|32|1.914|2396|1071.7|44.73%|\xe7\x89\xa9\xe7\x90\x86\xe6\x9c\xba'
p2663
sssa(dp2664
S'cnbjsjqpsgjlbs02'
p2665
(dp2666
g9
S'20191128150057815550'
p2667
sg11
I0
sg12
(dp2668
S'pid'
p2669
I14719
sS'retcode'
p2670
I0
sS'stderr'
p2671
g28
sS'stdout'
p2672
S'10.10.1.2|31667|3870|12.22%|32|1.306|2396|1046.8|43.69%|\xe7\x89\xa9\xe7\x90\x86\xe6\x9c\xba'
p2673
sssa(dp2674
S'cnbjsjqpvgjdub01'
p2675
(dp2676
g9
S'20191128150057815550'
p2677
sg11
I0
sg12
(dp2678
S'pid'
p2679
I18941
sS'retcode'
p2680
I0
sS'stderr'
p2681
g28
sS'stdout'
p2682
S'10.10.6.13|15950|8253|51.74%|8|6.874|107.4|48.0|44.69%|\xe8\x99\x9a\xe6\x8b\x9f\xe6\x9c\xba'
p2683
sssa(dp2684
S'10.10.11.176'
p2685
(dp2686
g9
S'20191128150057815550'
p2687
sg11
I0
sg12
(dp2688
S'pid'
p2689
I29853
sS'retcode'
p2690
I0
sS'stderr'
p2691
g28
sS'stdout'
p2692
S'10.10.11.176|128527|53059|41.28%|32|3.522|80615|49274.1|61.12%|\xe7\x89\xa9\xe7\x90\x86\xe6\x9c\xba'
p2693
sssa(dp2694
S'cnbjsjqpvglzabbix02'
p2695
(dp2696
g9
S'20191128150057815550'
p2697
sg11
I0
sg12
(dp2698
S'pid'
p2699
I13173
sS'retcode'
p2700
I0
sS'stderr'
p2701
g28
sS'stdout'
p2702
S'10.10.7.3|15950|9400|58.93%|8|0.206|322.1|49.6|15.40%|\xe8\x99\x9a\xe6\x8b\x9f\xe6\x9c\xba'
p2703
sssa(dp2704
S'cnbjsjqpsgjkafka07'
p2705
(dp2706
g9
S'20191128150057815550'
p2707
sg11
I0
sg12
(dp2708
S'pid'
p2709
I18549
sS'retcode'
p2710
I0
sS'stderr'
p2711
g28
sS'stdout'
p2712
S'10.10.11.208|128621|59591|46.33%|32|1.313|2396|1097.1|45.79%|\xe7\x89\xa9\xe7\x90\x86\xe6\x9c\xba'
p2713
sssa(dp2714
S'cnbjsjqpsgjkafka02'
p2715
(dp2716
g9
S'20191128150057815550'
p2717
sg11
I0
sg12
(dp2718
S'pid'
p2719
I22256
sS'retcode'
p2720
I0
sS'stderr'
p2721
g28
sS'stdout'
p2722
S'10.10.11.203|128621|74250|57.73%|32|2.073|2396|1034.4|43.17%|\xe7\x89\xa9\xe7\x90\x86\xe6\x9c\xba'
p2723
sssa.